
EEPROM_EMULATOR_QUICK_START1.elf:     file format elf32-littlearm

Sections:
Idx Name          Size      VMA       LMA       File off  Algn
  0 .text         00001330  00000000  00000000  00010000  2**2
                  CONTENTS, ALLOC, LOAD, READONLY, CODE
  1 .relocate     00000004  20000000  00001330  00020000  2**0
                  CONTENTS, ALLOC, LOAD, DATA
  2 .bss          00000128  20000004  00001334  00020004  2**2
                  ALLOC
  3 .stack        00002004  2000012c  0000145c  00020004  2**0
                  ALLOC
  4 .ARM.attributes 00000028  00000000  00000000  00020004  2**0
                  CONTENTS, READONLY
  5 .comment      00000059  00000000  00000000  0002002c  2**0
                  CONTENTS, READONLY
  6 .debug_info   000197a7  00000000  00000000  00020085  2**0
                  CONTENTS, READONLY, DEBUGGING
  7 .debug_abbrev 0000298b  00000000  00000000  0003982c  2**0
                  CONTENTS, READONLY, DEBUGGING
  8 .debug_loc    00003bf8  00000000  00000000  0003c1b7  2**0
                  CONTENTS, READONLY, DEBUGGING
  9 .debug_aranges 00000390  00000000  00000000  0003fdaf  2**0
                  CONTENTS, READONLY, DEBUGGING
 10 .debug_ranges 00000570  00000000  00000000  0004013f  2**0
                  CONTENTS, READONLY, DEBUGGING
 11 .debug_macro  000054b9  00000000  00000000  000406af  2**0
                  CONTENTS, READONLY, DEBUGGING
 12 .debug_line   0000897e  00000000  00000000  00045b68  2**0
                  CONTENTS, READONLY, DEBUGGING
 13 .debug_str    0008c959  00000000  00000000  0004e4e6  2**0
                  CONTENTS, READONLY, DEBUGGING
 14 .debug_frame  0000090c  00000000  00000000  000dae40  2**2
                  CONTENTS, READONLY, DEBUGGING

Disassembly of section .text:

00000000 <exception_table>:
       0:	30 21 00 20 85 0f 00 00 81 0f 00 00 81 0f 00 00     0!. ............
	...
      2c:	81 0f 00 00 00 00 00 00 00 00 00 00 81 0f 00 00     ................
      3c:	81 0f 00 00 81 0f 00 00 8d 10 00 00 81 0f 00 00     ................
      4c:	81 0f 00 00 81 0f 00 00 81 0f 00 00 81 0f 00 00     ................
      5c:	81 0f 00 00 81 0f 00 00 15 01 00 00 25 01 00 00     ............%...
      6c:	35 01 00 00 45 01 00 00 55 01 00 00 65 01 00 00     5...E...U...e...
      7c:	81 0f 00 00 81 0f 00 00 81 0f 00 00 81 0f 00 00     ................
      8c:	81 0f 00 00 81 0f 00 00 81 0f 00 00 81 0f 00 00     ................
      9c:	81 0f 00 00 81 0f 00 00 81 0f 00 00 81 0f 00 00     ................
      ac:	81 0f 00 00 00 00 00 00                             ........

000000b4 <__do_global_dtors_aux>:
      b4:	b510      	push	{r4, lr}
      b6:	4c06      	ldr	r4, [pc, #24]	; (d0 <__do_global_dtors_aux+0x1c>)
      b8:	7823      	ldrb	r3, [r4, #0]
      ba:	2b00      	cmp	r3, #0
      bc:	d107      	bne.n	ce <__do_global_dtors_aux+0x1a>
      be:	4b05      	ldr	r3, [pc, #20]	; (d4 <__do_global_dtors_aux+0x20>)
      c0:	2b00      	cmp	r3, #0
      c2:	d002      	beq.n	ca <__do_global_dtors_aux+0x16>
      c4:	4804      	ldr	r0, [pc, #16]	; (d8 <__do_global_dtors_aux+0x24>)
      c6:	e000      	b.n	ca <__do_global_dtors_aux+0x16>
      c8:	bf00      	nop
      ca:	2301      	movs	r3, #1
      cc:	7023      	strb	r3, [r4, #0]
      ce:	bd10      	pop	{r4, pc}
      d0:	20000004 	.word	0x20000004
      d4:	00000000 	.word	0x00000000
      d8:	00001330 	.word	0x00001330

000000dc <frame_dummy>:
      dc:	4b08      	ldr	r3, [pc, #32]	; (100 <frame_dummy+0x24>)
      de:	b510      	push	{r4, lr}
      e0:	2b00      	cmp	r3, #0
      e2:	d003      	beq.n	ec <frame_dummy+0x10>
      e4:	4907      	ldr	r1, [pc, #28]	; (104 <frame_dummy+0x28>)
      e6:	4808      	ldr	r0, [pc, #32]	; (108 <frame_dummy+0x2c>)
      e8:	e000      	b.n	ec <frame_dummy+0x10>
      ea:	bf00      	nop
      ec:	4807      	ldr	r0, [pc, #28]	; (10c <frame_dummy+0x30>)
      ee:	6803      	ldr	r3, [r0, #0]
      f0:	2b00      	cmp	r3, #0
      f2:	d100      	bne.n	f6 <frame_dummy+0x1a>
      f4:	bd10      	pop	{r4, pc}
      f6:	4b06      	ldr	r3, [pc, #24]	; (110 <frame_dummy+0x34>)
      f8:	2b00      	cmp	r3, #0
      fa:	d0fb      	beq.n	f4 <frame_dummy+0x18>
      fc:	4798      	blx	r3
      fe:	e7f9      	b.n	f4 <frame_dummy+0x18>
     100:	00000000 	.word	0x00000000
     104:	20000008 	.word	0x20000008
     108:	00001330 	.word	0x00001330
     10c:	00001330 	.word	0x00001330
     110:	00000000 	.word	0x00000000

00000114 <SERCOM0_Handler>:
	/* Get the vector number from the lookup table for the requested SERCOM */
	return (enum system_interrupt_vector)sercom_int_vectors[instance_index];
}

/** Auto-generate a set of interrupt handlers for each SERCOM in the device */
MREPEAT(SERCOM_INST_NUM, _SERCOM_INTERRUPT_HANDLER, ~)
     114:	b510      	push	{r4, lr}
     116:	4b02      	ldr	r3, [pc, #8]	; (120 <SERCOM0_Handler+0xc>)
     118:	681b      	ldr	r3, [r3, #0]
     11a:	2000      	movs	r0, #0
     11c:	4798      	blx	r3
     11e:	bd10      	pop	{r4, pc}
     120:	20000020 	.word	0x20000020

00000124 <SERCOM1_Handler>:
     124:	b510      	push	{r4, lr}
     126:	4b02      	ldr	r3, [pc, #8]	; (130 <SERCOM1_Handler+0xc>)
     128:	685b      	ldr	r3, [r3, #4]
     12a:	2001      	movs	r0, #1
     12c:	4798      	blx	r3
     12e:	bd10      	pop	{r4, pc}
     130:	20000020 	.word	0x20000020

00000134 <SERCOM2_Handler>:
     134:	b510      	push	{r4, lr}
     136:	4b02      	ldr	r3, [pc, #8]	; (140 <SERCOM2_Handler+0xc>)
     138:	689b      	ldr	r3, [r3, #8]
     13a:	2002      	movs	r0, #2
     13c:	4798      	blx	r3
     13e:	bd10      	pop	{r4, pc}
     140:	20000020 	.word	0x20000020

00000144 <SERCOM3_Handler>:
     144:	b510      	push	{r4, lr}
     146:	4b02      	ldr	r3, [pc, #8]	; (150 <SERCOM3_Handler+0xc>)
     148:	68db      	ldr	r3, [r3, #12]
     14a:	2003      	movs	r0, #3
     14c:	4798      	blx	r3
     14e:	bd10      	pop	{r4, pc}
     150:	20000020 	.word	0x20000020

00000154 <SERCOM4_Handler>:
     154:	b510      	push	{r4, lr}
     156:	4b02      	ldr	r3, [pc, #8]	; (160 <SERCOM4_Handler+0xc>)
     158:	691b      	ldr	r3, [r3, #16]
     15a:	2004      	movs	r0, #4
     15c:	4798      	blx	r3
     15e:	bd10      	pop	{r4, pc}
     160:	20000020 	.word	0x20000020

00000164 <SERCOM5_Handler>:
     164:	b510      	push	{r4, lr}
     166:	4b02      	ldr	r3, [pc, #8]	; (170 <SERCOM5_Handler+0xc>)
     168:	695b      	ldr	r3, [r3, #20]
     16a:	2005      	movs	r0, #5
     16c:	4798      	blx	r3
     16e:	bd10      	pop	{r4, pc}
     170:	20000020 	.word	0x20000020

00000174 <cpu_irq_enter_critical>:
volatile bool g_interrupt_enabled = true;
#endif

void cpu_irq_enter_critical(void)
{
	if (cpu_irq_critical_section_counter == 0) {
     174:	4b0c      	ldr	r3, [pc, #48]	; (1a8 <cpu_irq_enter_critical+0x34>)
     176:	681b      	ldr	r3, [r3, #0]
     178:	2b00      	cmp	r3, #0
     17a:	d106      	bne.n	18a <cpu_irq_enter_critical+0x16>
 */
__attribute__( ( always_inline ) ) __STATIC_INLINE uint32_t __get_PRIMASK(void)
{
  uint32_t result;

  __ASM volatile ("MRS %0, primask" : "=r" (result) );
     17c:	f3ef 8310 	mrs	r3, PRIMASK
		if (cpu_irq_is_enabled()) {
     180:	2b00      	cmp	r3, #0
     182:	d007      	beq.n	194 <cpu_irq_enter_critical+0x20>
			cpu_irq_disable();
			cpu_irq_prev_interrupt_state = true;
		} else {
			/* Make sure the to save the prev state as false */
			cpu_irq_prev_interrupt_state = false;
     184:	2200      	movs	r2, #0
     186:	4b09      	ldr	r3, [pc, #36]	; (1ac <cpu_irq_enter_critical+0x38>)
     188:	701a      	strb	r2, [r3, #0]
		}

	}

	cpu_irq_critical_section_counter++;
     18a:	4a07      	ldr	r2, [pc, #28]	; (1a8 <cpu_irq_enter_critical+0x34>)
     18c:	6813      	ldr	r3, [r2, #0]
     18e:	3301      	adds	r3, #1
     190:	6013      	str	r3, [r2, #0]
}
     192:	4770      	bx	lr
  __ASM volatile ("cpsid i" : : : "memory");
     194:	b672      	cpsid	i
    This function ensures the apparent order of the explicit memory operations before
    and after the instruction, without ensuring their completion.
 */
__attribute__( ( always_inline ) ) __STATIC_INLINE void __DMB(void)
{
  __ASM volatile ("dmb");
     196:	f3bf 8f5f 	dmb	sy
			cpu_irq_disable();
     19a:	2200      	movs	r2, #0
     19c:	4b04      	ldr	r3, [pc, #16]	; (1b0 <cpu_irq_enter_critical+0x3c>)
     19e:	701a      	strb	r2, [r3, #0]
			cpu_irq_prev_interrupt_state = true;
     1a0:	3201      	adds	r2, #1
     1a2:	4b02      	ldr	r3, [pc, #8]	; (1ac <cpu_irq_enter_critical+0x38>)
     1a4:	701a      	strb	r2, [r3, #0]
     1a6:	e7f0      	b.n	18a <cpu_irq_enter_critical+0x16>
     1a8:	20000038 	.word	0x20000038
     1ac:	2000003c 	.word	0x2000003c
     1b0:	20000000 	.word	0x20000000

000001b4 <cpu_irq_leave_critical>:
void cpu_irq_leave_critical(void)
{
	/* Check if the user is trying to leave a critical section when not in a critical section */
	Assert(cpu_irq_critical_section_counter > 0);

	cpu_irq_critical_section_counter--;
     1b4:	4b08      	ldr	r3, [pc, #32]	; (1d8 <cpu_irq_leave_critical+0x24>)
     1b6:	681a      	ldr	r2, [r3, #0]
     1b8:	3a01      	subs	r2, #1
     1ba:	601a      	str	r2, [r3, #0]

	/* Only enable global interrupts when the counter reaches 0 and the state of the global interrupt flag
	   was enabled when entering critical state */
	if ((cpu_irq_critical_section_counter == 0) && (cpu_irq_prev_interrupt_state)) {
     1bc:	681b      	ldr	r3, [r3, #0]
     1be:	2b00      	cmp	r3, #0
     1c0:	d109      	bne.n	1d6 <cpu_irq_leave_critical+0x22>
     1c2:	4b06      	ldr	r3, [pc, #24]	; (1dc <cpu_irq_leave_critical+0x28>)
     1c4:	781b      	ldrb	r3, [r3, #0]
     1c6:	2b00      	cmp	r3, #0
     1c8:	d005      	beq.n	1d6 <cpu_irq_leave_critical+0x22>
		cpu_irq_enable();
     1ca:	2201      	movs	r2, #1
     1cc:	4b04      	ldr	r3, [pc, #16]	; (1e0 <cpu_irq_leave_critical+0x2c>)
     1ce:	701a      	strb	r2, [r3, #0]
     1d0:	f3bf 8f5f 	dmb	sy
  __ASM volatile ("cpsie i" : : : "memory");
     1d4:	b662      	cpsie	i
	}
}
     1d6:	4770      	bx	lr
     1d8:	20000038 	.word	0x20000038
     1dc:	2000003c 	.word	0x2000003c
     1e0:	20000000 	.word	0x20000000

000001e4 <system_board_init>:
void board_init(void);
#  pragma weak board_init=system_board_init
#endif

void system_board_init(void)
{
     1e4:	b5f0      	push	{r4, r5, r6, r7, lr}
     1e6:	b083      	sub	sp, #12
	/* Sanity check arguments */
	Assert(config);

	/* Default configuration values */
	config->direction  = PORT_PIN_DIR_INPUT;
	config->input_pull = PORT_PIN_PULL_UP;
     1e8:	ac01      	add	r4, sp, #4
     1ea:	2501      	movs	r5, #1
     1ec:	7065      	strb	r5, [r4, #1]
	config->powersave  = false;
     1ee:	2700      	movs	r7, #0
     1f0:	70a7      	strb	r7, [r4, #2]
	struct port_config pin_conf;
	port_get_config_defaults(&pin_conf);

	/* Configure LEDs as outputs, turn them off */
	pin_conf.direction  = PORT_PIN_DIR_OUTPUT;
     1f2:	7025      	strb	r5, [r4, #0]
	port_pin_set_config(LED_0_PIN, &pin_conf);
     1f4:	0021      	movs	r1, r4
     1f6:	203e      	movs	r0, #62	; 0x3e
     1f8:	4e06      	ldr	r6, [pc, #24]	; (214 <system_board_init+0x30>)
     1fa:	47b0      	blx	r6
	PortGroup *const port_base = port_get_group_from_gpio_pin(gpio_pin);
	uint32_t pin_mask  = (1UL << (gpio_pin % 32));

	/* Set the pin to high or low atomically based on the requested level */
	if (level) {
		port_base->OUTSET.reg = pin_mask;
     1fc:	2280      	movs	r2, #128	; 0x80
     1fe:	05d2      	lsls	r2, r2, #23
     200:	4b05      	ldr	r3, [pc, #20]	; (218 <system_board_init+0x34>)
     202:	619a      	str	r2, [r3, #24]
	port_pin_set_output_level(LED_0_PIN, LED_0_INACTIVE);

	/* Set buttons as inputs */
	pin_conf.direction  = PORT_PIN_DIR_INPUT;
     204:	7027      	strb	r7, [r4, #0]
	pin_conf.input_pull = PORT_PIN_PULL_UP;
     206:	7065      	strb	r5, [r4, #1]
	port_pin_set_config(BUTTON_0_PIN, &pin_conf);
     208:	0021      	movs	r1, r4
     20a:	200f      	movs	r0, #15
     20c:	47b0      	blx	r6
	port_pin_set_output_level(AT86RFX_RST_PIN, true);
	port_pin_set_output_level(AT86RFX_SLP_PIN, true);
	pin_conf.direction  = PORT_PIN_DIR_INPUT;
	port_pin_set_config(AT86RFX_SPI_MISO, &pin_conf);
#endif	
}
     20e:	b003      	add	sp, #12
     210:	bdf0      	pop	{r4, r5, r6, r7, pc}
     212:	46c0      	nop			; (mov r8, r8)
     214:	00000581 	.word	0x00000581
     218:	41004480 	.word	0x41004480

0000021c <bod_set_config>:
 * \retval STATUS_ERR_INVALID_OPTION  The requested BOD level was outside the acceptable range
 */
enum status_code bod_set_config(
		const enum bod bod_id,
		struct bod_config *const conf)
{
     21c:	b510      	push	{r4, lr}
	Assert(conf);

	uint32_t temp = 0;

	/* Check if module is enabled. */
	if (SYSCTRL->BOD33.reg & SYSCTRL_BOD33_ENABLE) {
     21e:	4b1b      	ldr	r3, [pc, #108]	; (28c <bod_set_config+0x70>)
     220:	6b5b      	ldr	r3, [r3, #52]	; 0x34
     222:	079b      	lsls	r3, r3, #30
     224:	d504      	bpl.n	230 <bod_set_config+0x14>
		SYSCTRL->BOD33.reg &= ~SYSCTRL_BOD33_ENABLE;
     226:	4a19      	ldr	r2, [pc, #100]	; (28c <bod_set_config+0x70>)
     228:	6b53      	ldr	r3, [r2, #52]	; 0x34
     22a:	2402      	movs	r4, #2
     22c:	43a3      	bics	r3, r4
     22e:	6353      	str	r3, [r2, #52]	; 0x34
	}

	/* Convert BOD prescaler, trigger action and mode to a bitmask */
	temp |= (uint32_t)conf->prescaler | (uint32_t)conf->action |
			(uint32_t)conf->mode;
     230:	884a      	ldrh	r2, [r1, #2]
	temp |= (uint32_t)conf->prescaler | (uint32_t)conf->action |
     232:	880b      	ldrh	r3, [r1, #0]
     234:	790c      	ldrb	r4, [r1, #4]
     236:	4323      	orrs	r3, r4
     238:	4313      	orrs	r3, r2

	if (conf->mode == BOD_MODE_SAMPLED) {
     23a:	2480      	movs	r4, #128	; 0x80
     23c:	0064      	lsls	r4, r4, #1
     23e:	42a2      	cmp	r2, r4
     240:	d00d      	beq.n	25e <bod_set_config+0x42>
		/* Enable sampling clock if sampled mode */
		temp |= SYSCTRL_BOD33_CEN;
	}

	if (conf->hysteresis == true) {
     242:	798a      	ldrb	r2, [r1, #6]
     244:	2a00      	cmp	r2, #0
     246:	d001      	beq.n	24c <bod_set_config+0x30>
		temp |= SYSCTRL_BOD33_HYST;
     248:	2204      	movs	r2, #4
     24a:	4313      	orrs	r3, r2
	}

	if (conf->run_in_standby == true) {
     24c:	79ca      	ldrb	r2, [r1, #7]
     24e:	2a00      	cmp	r2, #0
     250:	d001      	beq.n	256 <bod_set_config+0x3a>
		temp |= SYSCTRL_BOD33_RUNSTDBY;
     252:	2240      	movs	r2, #64	; 0x40
     254:	4313      	orrs	r3, r2
	}

	switch (bod_id) {
     256:	2800      	cmp	r0, #0
     258:	d005      	beq.n	266 <bod_set_config+0x4a>
			while (!(SYSCTRL->PCLKSR.reg & SYSCTRL_PCLKSR_B33SRDY)) {
				/* Wait for BOD33 register sync ready */
			}
			break;
		default:
			return STATUS_ERR_INVALID_ARG;
     25a:	2017      	movs	r0, #23
	}

	return STATUS_OK;
}
     25c:	bd10      	pop	{r4, pc}
		temp |= SYSCTRL_BOD33_CEN;
     25e:	2280      	movs	r2, #128	; 0x80
     260:	0092      	lsls	r2, r2, #2
     262:	4313      	orrs	r3, r2
     264:	e7ed      	b.n	242 <bod_set_config+0x26>
			if (conf->level > 0x3F) {
     266:	794a      	ldrb	r2, [r1, #5]
				return STATUS_ERR_INVALID_ARG;
     268:	3017      	adds	r0, #23
			if (conf->level > 0x3F) {
     26a:	2a3f      	cmp	r2, #63	; 0x3f
     26c:	d8f6      	bhi.n	25c <bod_set_config+0x40>
			SYSCTRL->BOD33.reg = SYSCTRL_BOD33_LEVEL(conf->level) | temp;
     26e:	0412      	lsls	r2, r2, #16
     270:	21fc      	movs	r1, #252	; 0xfc
     272:	0389      	lsls	r1, r1, #14
     274:	400a      	ands	r2, r1
     276:	4313      	orrs	r3, r2
     278:	4a04      	ldr	r2, [pc, #16]	; (28c <bod_set_config+0x70>)
     27a:	6353      	str	r3, [r2, #52]	; 0x34
			while (!(SYSCTRL->PCLKSR.reg & SYSCTRL_PCLKSR_B33SRDY)) {
     27c:	0011      	movs	r1, r2
     27e:	2280      	movs	r2, #128	; 0x80
     280:	0112      	lsls	r2, r2, #4
     282:	68cb      	ldr	r3, [r1, #12]
     284:	4213      	tst	r3, r2
     286:	d0fc      	beq.n	282 <bod_set_config+0x66>
	return STATUS_OK;
     288:	2000      	movs	r0, #0
     28a:	e7e7      	b.n	25c <bod_set_config+0x40>
     28c:	40000800 	.word	0x40000800

00000290 <nvm_set_config>:
 *                        EEPROM and/or auxiliary space configuration from being
 *                        altered
 */
enum status_code nvm_set_config(
		const struct nvm_config *const config)
{
     290:	b510      	push	{r4, lr}
		case SYSTEM_CLOCK_APB_APBA:
			PM->APBAMASK.reg |= mask;
			break;

		case SYSTEM_CLOCK_APB_APBB:
			PM->APBBMASK.reg |= mask;
     292:	4a1e      	ldr	r2, [pc, #120]	; (30c <nvm_set_config+0x7c>)
     294:	69d3      	ldr	r3, [r2, #28]
     296:	2104      	movs	r1, #4
     298:	430b      	orrs	r3, r1
     29a:	61d3      	str	r3, [r2, #28]
	/* Turn on the digital interface clock */
	system_apb_clock_set_mask(SYSTEM_CLOCK_APB_APBB, PM_APBBMASK_NVMCTRL);
#endif

	/* Clear error flags */
	nvm_module->STATUS.reg = NVMCTRL_STATUS_MASK;
     29c:	4b1c      	ldr	r3, [pc, #112]	; (310 <nvm_set_config+0x80>)
     29e:	2220      	movs	r2, #32
     2a0:	32ff      	adds	r2, #255	; 0xff
     2a2:	831a      	strh	r2, [r3, #24]
static inline bool nvm_is_ready(void)
{
	/* Get a pointer to the module hardware instance */
	Nvmctrl *const nvm_module = NVMCTRL;

	return nvm_module->INTFLAG.reg & NVMCTRL_INTFLAG_READY;
     2a4:	7d1a      	ldrb	r2, [r3, #20]

	/* Check if the module is busy */
	if (!nvm_is_ready()) {
		return STATUS_BUSY;
     2a6:	2305      	movs	r3, #5
	if (!nvm_is_ready()) {
     2a8:	07d2      	lsls	r2, r2, #31
     2aa:	d401      	bmi.n	2b0 <nvm_set_config+0x20>
	if (nvm_module->STATUS.reg & NVMCTRL_STATUS_SB) {
		return STATUS_ERR_IO;
	}

	return STATUS_OK;
}
     2ac:	0018      	movs	r0, r3
     2ae:	bd10      	pop	{r4, pc}
			NVMCTRL_CTRLB_SLEEPPRM(config->sleep_power_mode) |
     2b0:	7803      	ldrb	r3, [r0, #0]
     2b2:	021b      	lsls	r3, r3, #8
     2b4:	22c0      	movs	r2, #192	; 0xc0
     2b6:	0092      	lsls	r2, r2, #2
     2b8:	4013      	ands	r3, r2
			((config->manual_page_write & 0x01) << NVMCTRL_CTRLB_MANW_Pos) |
     2ba:	7841      	ldrb	r1, [r0, #1]
     2bc:	01c9      	lsls	r1, r1, #7
     2be:	22ff      	movs	r2, #255	; 0xff
     2c0:	400a      	ands	r2, r1
			NVMCTRL_CTRLB_SLEEPPRM(config->sleep_power_mode) |
     2c2:	4313      	orrs	r3, r2
			NVMCTRL_CTRLB_RWS(config->wait_states) |
     2c4:	7881      	ldrb	r1, [r0, #2]
     2c6:	0049      	lsls	r1, r1, #1
     2c8:	221e      	movs	r2, #30
     2ca:	400a      	ands	r2, r1
			((config->manual_page_write & 0x01) << NVMCTRL_CTRLB_MANW_Pos) |
     2cc:	4313      	orrs	r3, r2
			((config->disable_cache & 0x01) << NVMCTRL_CTRLB_CACHEDIS_Pos) |
     2ce:	78c2      	ldrb	r2, [r0, #3]
     2d0:	0492      	lsls	r2, r2, #18
     2d2:	2180      	movs	r1, #128	; 0x80
     2d4:	02c9      	lsls	r1, r1, #11
     2d6:	400a      	ands	r2, r1
			NVMCTRL_CTRLB_RWS(config->wait_states) |
     2d8:	4313      	orrs	r3, r2
			NVMCTRL_CTRLB_READMODE(config->cache_readmode);
     2da:	7902      	ldrb	r2, [r0, #4]
     2dc:	0412      	lsls	r2, r2, #16
     2de:	21c0      	movs	r1, #192	; 0xc0
     2e0:	0289      	lsls	r1, r1, #10
     2e2:	400a      	ands	r2, r1
			((config->disable_cache & 0x01) << NVMCTRL_CTRLB_CACHEDIS_Pos) |
     2e4:	4313      	orrs	r3, r2
	nvm_module->CTRLB.reg =
     2e6:	4a0a      	ldr	r2, [pc, #40]	; (310 <nvm_set_config+0x80>)
     2e8:	6053      	str	r3, [r2, #4]
	_nvm_dev.page_size         = (8 << nvm_module->PARAM.bit.PSZ);
     2ea:	6893      	ldr	r3, [r2, #8]
     2ec:	035b      	lsls	r3, r3, #13
     2ee:	0f5b      	lsrs	r3, r3, #29
     2f0:	4908      	ldr	r1, [pc, #32]	; (314 <nvm_set_config+0x84>)
     2f2:	2408      	movs	r4, #8
     2f4:	409c      	lsls	r4, r3
     2f6:	800c      	strh	r4, [r1, #0]
	_nvm_dev.number_of_pages   = nvm_module->PARAM.bit.NVMP;
     2f8:	6893      	ldr	r3, [r2, #8]
     2fa:	804b      	strh	r3, [r1, #2]
	_nvm_dev.manual_page_write = config->manual_page_write;
     2fc:	7843      	ldrb	r3, [r0, #1]
     2fe:	710b      	strb	r3, [r1, #4]
	if (nvm_module->STATUS.reg & NVMCTRL_STATUS_SB) {
     300:	8b13      	ldrh	r3, [r2, #24]
     302:	05db      	lsls	r3, r3, #23
	return STATUS_OK;
     304:	0fdb      	lsrs	r3, r3, #31
     306:	011b      	lsls	r3, r3, #4
     308:	e7d0      	b.n	2ac <nvm_set_config+0x1c>
     30a:	46c0      	nop			; (mov r8, r8)
     30c:	40000400 	.word	0x40000400
     310:	41004000 	.word	0x41004000
     314:	20000040 	.word	0x20000040

00000318 <nvm_execute_command>:
 */
enum status_code nvm_execute_command(
		const enum nvm_command command,
		const uint32_t address,
		const uint32_t parameter)
{
     318:	b530      	push	{r4, r5, lr}
     31a:	0004      	movs	r4, r0
	uint32_t ctrlb_bak;

	/* Check that the address given is valid  */
	if (address > ((uint32_t)_nvm_dev.page_size * _nvm_dev.number_of_pages)
     31c:	4a22      	ldr	r2, [pc, #136]	; (3a8 <nvm_execute_command+0x90>)
     31e:	8810      	ldrh	r0, [r2, #0]
     320:	8853      	ldrh	r3, [r2, #2]
     322:	4343      	muls	r3, r0
     324:	428b      	cmp	r3, r1
     326:	d206      	bcs.n	336 <nvm_execute_command+0x1e>
		&& !(address >= NVMCTRL_AUX0_ADDRESS && address <= NVMCTRL_AUX1_ADDRESS )){
     328:	2280      	movs	r2, #128	; 0x80
     32a:	0192      	lsls	r2, r2, #6
		if (address >= ((uint32_t)NVMCTRL_RWW_EEPROM_SIZE + NVMCTRL_RWW_EEPROM_ADDR)
			|| address < NVMCTRL_RWW_EEPROM_ADDR){
			return STATUS_ERR_BAD_ADDRESS;
		}
#else
		return STATUS_ERR_BAD_ADDRESS;
     32c:	2018      	movs	r0, #24
		&& !(address >= NVMCTRL_AUX0_ADDRESS && address <= NVMCTRL_AUX1_ADDRESS )){
     32e:	4b1f      	ldr	r3, [pc, #124]	; (3ac <nvm_execute_command+0x94>)
     330:	18cb      	adds	r3, r1, r3
     332:	4293      	cmp	r3, r2
     334:	d80e      	bhi.n	354 <nvm_execute_command+0x3c>

	/* Get a pointer to the module hardware instance */
	Nvmctrl *const nvm_module = NVMCTRL;

	/* Turn off cache before issuing flash commands */
	ctrlb_bak = nvm_module->CTRLB.reg;
     336:	4b1e      	ldr	r3, [pc, #120]	; (3b0 <nvm_execute_command+0x98>)
     338:	685d      	ldr	r5, [r3, #4]
#if (SAMC20) || (SAMC21)
	nvm_module->CTRLB.reg = ((ctrlb_bak &(~(NVMCTRL_CTRLB_CACHEDIS(0x2)))) 
							| NVMCTRL_CTRLB_CACHEDIS(0x1));
#else
	nvm_module->CTRLB.reg = ctrlb_bak | NVMCTRL_CTRLB_CACHEDIS;
     33a:	2280      	movs	r2, #128	; 0x80
     33c:	02d2      	lsls	r2, r2, #11
     33e:	432a      	orrs	r2, r5
     340:	605a      	str	r2, [r3, #4]
#endif

	/* Clear error flags */
	nvm_module->STATUS.reg = NVMCTRL_STATUS_MASK;
     342:	2220      	movs	r2, #32
     344:	32ff      	adds	r2, #255	; 0xff
     346:	831a      	strh	r2, [r3, #24]
     348:	7d1b      	ldrb	r3, [r3, #20]

	/* Check if the module is busy */
	if (!nvm_is_ready()) {
     34a:	07db      	lsls	r3, r3, #31
     34c:	d403      	bmi.n	356 <nvm_execute_command+0x3e>
		/* Restore the setting */
		nvm_module->CTRLB.reg = ctrlb_bak;
     34e:	4b18      	ldr	r3, [pc, #96]	; (3b0 <nvm_execute_command+0x98>)
     350:	605d      	str	r5, [r3, #4]
		return STATUS_BUSY;
     352:	2005      	movs	r0, #5

	/* Restore the setting */
	nvm_module->CTRLB.reg = ctrlb_bak;

	return STATUS_OK;
}
     354:	bd30      	pop	{r4, r5, pc}
	switch (command) {
     356:	2c45      	cmp	r4, #69	; 0x45
     358:	d822      	bhi.n	3a0 <nvm_execute_command+0x88>
     35a:	00a3      	lsls	r3, r4, #2
     35c:	4a15      	ldr	r2, [pc, #84]	; (3b4 <nvm_execute_command+0x9c>)
     35e:	58d3      	ldr	r3, [r2, r3]
     360:	469f      	mov	pc, r3
			if (nvm_module->STATUS.reg & NVMCTRL_STATUS_SB) {
     362:	4b13      	ldr	r3, [pc, #76]	; (3b0 <nvm_execute_command+0x98>)
     364:	8b1b      	ldrh	r3, [r3, #24]
     366:	05db      	lsls	r3, r3, #23
     368:	d503      	bpl.n	372 <nvm_execute_command+0x5a>
				nvm_module->CTRLB.reg = ctrlb_bak;
     36a:	4b11      	ldr	r3, [pc, #68]	; (3b0 <nvm_execute_command+0x98>)
     36c:	605d      	str	r5, [r3, #4]
				return STATUS_ERR_IO;
     36e:	2010      	movs	r0, #16
     370:	e7f0      	b.n	354 <nvm_execute_command+0x3c>
			nvm_module->ADDR.reg = (uintptr_t)&NVM_MEMORY[address / 4];
     372:	0889      	lsrs	r1, r1, #2
     374:	0049      	lsls	r1, r1, #1
     376:	4b0e      	ldr	r3, [pc, #56]	; (3b0 <nvm_execute_command+0x98>)
     378:	61d9      	str	r1, [r3, #28]
			break;
     37a:	e003      	b.n	384 <nvm_execute_command+0x6c>
			nvm_module->ADDR.reg = (uintptr_t)&NVM_MEMORY[address / 4];
     37c:	0889      	lsrs	r1, r1, #2
     37e:	0049      	lsls	r1, r1, #1
     380:	4b0b      	ldr	r3, [pc, #44]	; (3b0 <nvm_execute_command+0x98>)
     382:	61d9      	str	r1, [r3, #28]
	nvm_module->CTRLA.reg = command | NVMCTRL_CTRLA_CMDEX_KEY;
     384:	20a5      	movs	r0, #165	; 0xa5
     386:	0200      	lsls	r0, r0, #8
     388:	4304      	orrs	r4, r0
     38a:	4b09      	ldr	r3, [pc, #36]	; (3b0 <nvm_execute_command+0x98>)
     38c:	801c      	strh	r4, [r3, #0]
     38e:	0019      	movs	r1, r3
	while (!nvm_is_ready()) {
     390:	2201      	movs	r2, #1
     392:	7d0b      	ldrb	r3, [r1, #20]
     394:	4213      	tst	r3, r2
     396:	d0fc      	beq.n	392 <nvm_execute_command+0x7a>
	nvm_module->CTRLB.reg = ctrlb_bak;
     398:	4b05      	ldr	r3, [pc, #20]	; (3b0 <nvm_execute_command+0x98>)
     39a:	605d      	str	r5, [r3, #4]
	return STATUS_OK;
     39c:	2000      	movs	r0, #0
     39e:	e7d9      	b.n	354 <nvm_execute_command+0x3c>
			nvm_module->CTRLB.reg = ctrlb_bak;
     3a0:	4b03      	ldr	r3, [pc, #12]	; (3b0 <nvm_execute_command+0x98>)
     3a2:	605d      	str	r5, [r3, #4]
			return STATUS_ERR_INVALID_ARG;
     3a4:	2017      	movs	r0, #23
     3a6:	e7d5      	b.n	354 <nvm_execute_command+0x3c>
     3a8:	20000040 	.word	0x20000040
     3ac:	ff7fc000 	.word	0xff7fc000
     3b0:	41004000 	.word	0x41004000
     3b4:	000011c8 	.word	0x000011c8

000003b8 <nvm_write_buffer>:
 */
enum status_code nvm_write_buffer(
		const uint32_t destination_address,
		const uint8_t *buffer,
		uint16_t length)
{
     3b8:	b5f8      	push	{r3, r4, r5, r6, r7, lr}
	bool is_rww_eeprom = false;
#endif

	/* Check if the destination address is valid */
	if (destination_address >
			((uint32_t)_nvm_dev.page_size * _nvm_dev.number_of_pages)) {
     3ba:	4b25      	ldr	r3, [pc, #148]	; (450 <nvm_write_buffer+0x98>)
     3bc:	881d      	ldrh	r5, [r3, #0]
     3be:	885b      	ldrh	r3, [r3, #2]
     3c0:	436b      	muls	r3, r5
			|| destination_address < NVMCTRL_RWW_EEPROM_ADDR){
			return STATUS_ERR_BAD_ADDRESS;
		}
		is_rww_eeprom = true;
#else
		return STATUS_ERR_BAD_ADDRESS;
     3c2:	2418      	movs	r4, #24
	if (destination_address >
     3c4:	4283      	cmp	r3, r0
     3c6:	d201      	bcs.n	3cc <nvm_write_buffer+0x14>
				destination_address, 0);
#endif
	}

	return STATUS_OK;
}
     3c8:	0020      	movs	r0, r4
     3ca:	bdf8      	pop	{r3, r4, r5, r6, r7, pc}
	if (destination_address & (_nvm_dev.page_size - 1)) {
     3cc:	1e6b      	subs	r3, r5, #1
     3ce:	4218      	tst	r0, r3
     3d0:	d1fa      	bne.n	3c8 <nvm_write_buffer+0x10>
		return STATUS_ERR_INVALID_ARG;
     3d2:	3c01      	subs	r4, #1
	if (length > _nvm_dev.page_size) {
     3d4:	4295      	cmp	r5, r2
     3d6:	d3f7      	bcc.n	3c8 <nvm_write_buffer+0x10>
     3d8:	4b1e      	ldr	r3, [pc, #120]	; (454 <nvm_write_buffer+0x9c>)
     3da:	7d1b      	ldrb	r3, [r3, #20]
		return STATUS_BUSY;
     3dc:	3c12      	subs	r4, #18
	if (!nvm_is_ready()) {
     3de:	07db      	lsls	r3, r3, #31
     3e0:	d5f2      	bpl.n	3c8 <nvm_write_buffer+0x10>
	nvm_module->CTRLA.reg = NVM_COMMAND_PAGE_BUFFER_CLEAR | NVMCTRL_CTRLA_CMDEX_KEY;
     3e2:	4c1d      	ldr	r4, [pc, #116]	; (458 <nvm_write_buffer+0xa0>)
     3e4:	4b1b      	ldr	r3, [pc, #108]	; (454 <nvm_write_buffer+0x9c>)
     3e6:	801c      	strh	r4, [r3, #0]
     3e8:	001d      	movs	r5, r3
	while (!nvm_is_ready()) {
     3ea:	2401      	movs	r4, #1
     3ec:	7d2b      	ldrb	r3, [r5, #20]
     3ee:	4223      	tst	r3, r4
     3f0:	d0fc      	beq.n	3ec <nvm_write_buffer+0x34>
	nvm_module->STATUS.reg = NVMCTRL_STATUS_MASK;
     3f2:	2420      	movs	r4, #32
     3f4:	34ff      	adds	r4, #255	; 0xff
     3f6:	4b17      	ldr	r3, [pc, #92]	; (454 <nvm_write_buffer+0x9c>)
     3f8:	831c      	strh	r4, [r3, #24]
	for (uint16_t i = 0; i < length; i += 2) {
     3fa:	2a00      	cmp	r2, #0
     3fc:	d022      	beq.n	444 <nvm_write_buffer+0x8c>
     3fe:	2301      	movs	r3, #1
     400:	0005      	movs	r5, r0
     402:	439d      	bics	r5, r3
     404:	2300      	movs	r3, #0
		if (i < (length - 1)) {
     406:	1e57      	subs	r7, r2, #1
     408:	e009      	b.n	41e <nvm_write_buffer+0x66>
			data |= (buffer[i + 1] << 8);
     40a:	18ce      	adds	r6, r1, r3
     40c:	7876      	ldrb	r6, [r6, #1]
     40e:	0236      	lsls	r6, r6, #8
     410:	4334      	orrs	r4, r6
		NVM_MEMORY[nvm_address++] = data;
     412:	802c      	strh	r4, [r5, #0]
	for (uint16_t i = 0; i < length; i += 2) {
     414:	3302      	adds	r3, #2
     416:	b29b      	uxth	r3, r3
     418:	3502      	adds	r5, #2
     41a:	429a      	cmp	r2, r3
     41c:	d904      	bls.n	428 <nvm_write_buffer+0x70>
		data = buffer[i];
     41e:	5ccc      	ldrb	r4, [r1, r3]
		if (i < (length - 1)) {
     420:	42bb      	cmp	r3, r7
     422:	dbf2      	blt.n	40a <nvm_write_buffer+0x52>
		data = buffer[i];
     424:	b2a4      	uxth	r4, r4
     426:	e7f4      	b.n	412 <nvm_write_buffer+0x5a>
	if ((_nvm_dev.manual_page_write == false) && (length < NVMCTRL_PAGE_SIZE)) {
     428:	4b09      	ldr	r3, [pc, #36]	; (450 <nvm_write_buffer+0x98>)
     42a:	791b      	ldrb	r3, [r3, #4]
	return STATUS_OK;
     42c:	2400      	movs	r4, #0
	if ((_nvm_dev.manual_page_write == false) && (length < NVMCTRL_PAGE_SIZE)) {
     42e:	2b00      	cmp	r3, #0
     430:	d1ca      	bne.n	3c8 <nvm_write_buffer+0x10>
     432:	2a3f      	cmp	r2, #63	; 0x3f
     434:	d8c8      	bhi.n	3c8 <nvm_write_buffer+0x10>
		return nvm_execute_command(NVM_COMMAND_WRITE_PAGE,
     436:	2200      	movs	r2, #0
     438:	0001      	movs	r1, r0
     43a:	2004      	movs	r0, #4
     43c:	4b07      	ldr	r3, [pc, #28]	; (45c <nvm_write_buffer+0xa4>)
     43e:	4798      	blx	r3
     440:	0004      	movs	r4, r0
     442:	e7c1      	b.n	3c8 <nvm_write_buffer+0x10>
	if ((_nvm_dev.manual_page_write == false) && (length < NVMCTRL_PAGE_SIZE)) {
     444:	4b02      	ldr	r3, [pc, #8]	; (450 <nvm_write_buffer+0x98>)
     446:	791b      	ldrb	r3, [r3, #4]
	return STATUS_OK;
     448:	2400      	movs	r4, #0
	if ((_nvm_dev.manual_page_write == false) && (length < NVMCTRL_PAGE_SIZE)) {
     44a:	2b00      	cmp	r3, #0
     44c:	d0f3      	beq.n	436 <nvm_write_buffer+0x7e>
     44e:	e7bb      	b.n	3c8 <nvm_write_buffer+0x10>
     450:	20000040 	.word	0x20000040
     454:	41004000 	.word	0x41004000
     458:	ffffa544 	.word	0xffffa544
     45c:	00000319 	.word	0x00000319

00000460 <nvm_read_buffer>:
 */
enum status_code nvm_read_buffer(
		const uint32_t source_address,
		uint8_t *const buffer,
		uint16_t length)
{
     460:	b570      	push	{r4, r5, r6, lr}
	/* Check if the source address is valid */
	if (source_address >
			((uint32_t)_nvm_dev.page_size * _nvm_dev.number_of_pages)) {
     462:	4b18      	ldr	r3, [pc, #96]	; (4c4 <nvm_read_buffer+0x64>)
     464:	881d      	ldrh	r5, [r3, #0]
     466:	885b      	ldrh	r3, [r3, #2]
     468:	436b      	muls	r3, r5
		if (source_address >= ((uint32_t)NVMCTRL_RWW_EEPROM_SIZE + NVMCTRL_RWW_EEPROM_ADDR)
			|| source_address < NVMCTRL_RWW_EEPROM_ADDR){
			return STATUS_ERR_BAD_ADDRESS;
		}
#else
		return STATUS_ERR_BAD_ADDRESS;
     46a:	2418      	movs	r4, #24
	if (source_address >
     46c:	4283      	cmp	r3, r0
     46e:	d201      	bcs.n	474 <nvm_read_buffer+0x14>
			buffer[i + 1] = (data >> 8);
		}
	}

	return STATUS_OK;
}
     470:	0020      	movs	r0, r4
     472:	bd70      	pop	{r4, r5, r6, pc}
	if (source_address & (_nvm_dev.page_size - 1)) {
     474:	1e6b      	subs	r3, r5, #1
     476:	4218      	tst	r0, r3
     478:	d1fa      	bne.n	470 <nvm_read_buffer+0x10>
		return STATUS_ERR_INVALID_ARG;
     47a:	3c01      	subs	r4, #1
	if (length > _nvm_dev.page_size) {
     47c:	4295      	cmp	r5, r2
     47e:	d3f7      	bcc.n	470 <nvm_read_buffer+0x10>
     480:	4b11      	ldr	r3, [pc, #68]	; (4c8 <nvm_read_buffer+0x68>)
     482:	7d1b      	ldrb	r3, [r3, #20]
		return STATUS_BUSY;
     484:	3c12      	subs	r4, #18
	if (!nvm_is_ready()) {
     486:	07db      	lsls	r3, r3, #31
     488:	d5f2      	bpl.n	470 <nvm_read_buffer+0x10>
	nvm_module->STATUS.reg = NVMCTRL_STATUS_MASK;
     48a:	2420      	movs	r4, #32
     48c:	34ff      	adds	r4, #255	; 0xff
     48e:	4b0e      	ldr	r3, [pc, #56]	; (4c8 <nvm_read_buffer+0x68>)
     490:	831c      	strh	r4, [r3, #24]
	for (uint16_t i = 0; i < length; i += 2) {
     492:	2a00      	cmp	r2, #0
     494:	d014      	beq.n	4c0 <nvm_read_buffer+0x60>
     496:	2301      	movs	r3, #1
     498:	4398      	bics	r0, r3
     49a:	2300      	movs	r3, #0
		if (i < (length - 1)) {
     49c:	1e56      	subs	r6, r2, #1
     49e:	e004      	b.n	4aa <nvm_read_buffer+0x4a>
	for (uint16_t i = 0; i < length; i += 2) {
     4a0:	3302      	adds	r3, #2
     4a2:	b29b      	uxth	r3, r3
     4a4:	3002      	adds	r0, #2
     4a6:	429a      	cmp	r2, r3
     4a8:	d908      	bls.n	4bc <nvm_read_buffer+0x5c>
		uint16_t data = NVM_MEMORY[page_address++];
     4aa:	8804      	ldrh	r4, [r0, #0]
     4ac:	b2a4      	uxth	r4, r4
		buffer[i] = (data & 0xFF);
     4ae:	54cc      	strb	r4, [r1, r3]
		if (i < (length - 1)) {
     4b0:	42b3      	cmp	r3, r6
     4b2:	daf5      	bge.n	4a0 <nvm_read_buffer+0x40>
			buffer[i + 1] = (data >> 8);
     4b4:	18cd      	adds	r5, r1, r3
     4b6:	0a24      	lsrs	r4, r4, #8
     4b8:	706c      	strb	r4, [r5, #1]
     4ba:	e7f1      	b.n	4a0 <nvm_read_buffer+0x40>
	return STATUS_OK;
     4bc:	2400      	movs	r4, #0
     4be:	e7d7      	b.n	470 <nvm_read_buffer+0x10>
     4c0:	2400      	movs	r4, #0
     4c2:	e7d5      	b.n	470 <nvm_read_buffer+0x10>
     4c4:	20000040 	.word	0x20000040
     4c8:	41004000 	.word	0x41004000

000004cc <nvm_erase_row>:
		bool is_rww_eeprom = false;
#endif

	/* Check if the row address is valid */
	if (row_address >
			((uint32_t)_nvm_dev.page_size * _nvm_dev.number_of_pages)) {
     4cc:	4b13      	ldr	r3, [pc, #76]	; (51c <nvm_erase_row+0x50>)
     4ce:	881a      	ldrh	r2, [r3, #0]
     4d0:	885b      	ldrh	r3, [r3, #2]
     4d2:	4353      	muls	r3, r2
			|| row_address < NVMCTRL_RWW_EEPROM_ADDR){
			return STATUS_ERR_BAD_ADDRESS;
		}
		is_rww_eeprom = true;
#else
		return STATUS_ERR_BAD_ADDRESS;
     4d4:	2118      	movs	r1, #24
	if (row_address >
     4d6:	4283      	cmp	r3, r0
     4d8:	d201      	bcs.n	4de <nvm_erase_row+0x12>
	if ((enum nvm_error)(nvm_module->STATUS.reg & NVM_ERRORS_MASK) != NVM_ERROR_NONE) {
		return STATUS_ABORTED;
	}

	return STATUS_OK;
}
     4da:	0008      	movs	r0, r1
     4dc:	4770      	bx	lr
	if (row_address & ((_nvm_dev.page_size * NVMCTRL_ROW_PAGES) - 1)) {
     4de:	0092      	lsls	r2, r2, #2
     4e0:	3a01      	subs	r2, #1
     4e2:	4210      	tst	r0, r2
     4e4:	d1f9      	bne.n	4da <nvm_erase_row+0xe>
     4e6:	4b0e      	ldr	r3, [pc, #56]	; (520 <nvm_erase_row+0x54>)
     4e8:	7d1b      	ldrb	r3, [r3, #20]
		return STATUS_BUSY;
     4ea:	3913      	subs	r1, #19
	if (!nvm_is_ready()) {
     4ec:	07db      	lsls	r3, r3, #31
     4ee:	d5f4      	bpl.n	4da <nvm_erase_row+0xe>
	nvm_module->STATUS.reg = NVMCTRL_STATUS_MASK;
     4f0:	4b0b      	ldr	r3, [pc, #44]	; (520 <nvm_erase_row+0x54>)
     4f2:	2220      	movs	r2, #32
     4f4:	32ff      	adds	r2, #255	; 0xff
     4f6:	831a      	strh	r2, [r3, #24]
	nvm_module->ADDR.reg  = (uintptr_t)&NVM_MEMORY[row_address / 4];
     4f8:	0880      	lsrs	r0, r0, #2
     4fa:	0040      	lsls	r0, r0, #1
     4fc:	61d8      	str	r0, [r3, #28]
	nvm_module->CTRLA.reg = NVM_COMMAND_ERASE_ROW | NVMCTRL_CTRLA_CMDEX_KEY;
     4fe:	4a09      	ldr	r2, [pc, #36]	; (524 <nvm_erase_row+0x58>)
     500:	801a      	strh	r2, [r3, #0]
     502:	0019      	movs	r1, r3
	while (!nvm_is_ready()) {
     504:	2201      	movs	r2, #1
     506:	7d0b      	ldrb	r3, [r1, #20]
     508:	4213      	tst	r3, r2
     50a:	d0fc      	beq.n	506 <nvm_erase_row+0x3a>
	if ((enum nvm_error)(nvm_module->STATUS.reg & NVM_ERRORS_MASK) != NVM_ERROR_NONE) {
     50c:	4b04      	ldr	r3, [pc, #16]	; (520 <nvm_erase_row+0x54>)
     50e:	8b19      	ldrh	r1, [r3, #24]
     510:	201c      	movs	r0, #28
     512:	4001      	ands	r1, r0
	return STATUS_OK;
     514:	1e48      	subs	r0, r1, #1
     516:	4181      	sbcs	r1, r0
     518:	0089      	lsls	r1, r1, #2
     51a:	e7de      	b.n	4da <nvm_erase_row+0xe>
     51c:	20000040 	.word	0x20000040
     520:	41004000 	.word	0x41004000
     524:	ffffa502 	.word	0xffffa502

00000528 <nvm_get_parameters>:

	/* Get a pointer to the module hardware instance */
	Nvmctrl *const nvm_module = NVMCTRL;

	/* Clear error flags */
	nvm_module->STATUS.reg = NVMCTRL_STATUS_MASK;
     528:	4b13      	ldr	r3, [pc, #76]	; (578 <nvm_get_parameters+0x50>)
     52a:	2220      	movs	r2, #32
     52c:	32ff      	adds	r2, #255	; 0xff
     52e:	831a      	strh	r2, [r3, #24]

	/* Read out from the PARAM register */
	uint32_t param_reg = nvm_module->PARAM.reg;
     530:	6899      	ldr	r1, [r3, #8]

	/* Mask out page size exponent and convert to a number of bytes */
	parameters->page_size =
			8 << ((param_reg & NVMCTRL_PARAM_PSZ_Msk) >> NVMCTRL_PARAM_PSZ_Pos);
     532:	034a      	lsls	r2, r1, #13
     534:	0f52      	lsrs	r2, r2, #29
     536:	2308      	movs	r3, #8
     538:	4093      	lsls	r3, r2
	parameters->page_size =
     53a:	7003      	strb	r3, [r0, #0]

	/* Mask out number of pages count */
	parameters->nvm_number_of_pages =
     53c:	8041      	strh	r1, [r0, #2]
			(param_reg & NVMCTRL_PARAM_RWWEEP_Msk) >> NVMCTRL_PARAM_RWWEEP_Pos;
#endif

	/* Read the current EEPROM fuse value from the USER row */
	uint16_t eeprom_fuse_value =
			(NVM_USER_MEMORY[NVMCTRL_FUSES_EEPROM_SIZE_Pos / 16] &
     53e:	4b0f      	ldr	r3, [pc, #60]	; (57c <nvm_get_parameters+0x54>)
     540:	881b      	ldrh	r3, [r3, #0]
	uint16_t eeprom_fuse_value =
     542:	065b      	lsls	r3, r3, #25
     544:	0f5b      	lsrs	r3, r3, #29
			NVMCTRL_FUSES_EEPROM_SIZE_Msk) >> NVMCTRL_FUSES_EEPROM_SIZE_Pos;

	/* Translate the EEPROM fuse byte value to a number of NVM pages */
	if (eeprom_fuse_value == 7) {
     546:	2b07      	cmp	r3, #7
     548:	d010      	beq.n	56c <nvm_get_parameters+0x44>
		parameters->eeprom_number_of_pages = 0;
	}
	else {
		parameters->eeprom_number_of_pages =
				NVMCTRL_ROW_PAGES << (6 - eeprom_fuse_value);
     54a:	2206      	movs	r2, #6
     54c:	1ad2      	subs	r2, r2, r3
     54e:	2304      	movs	r3, #4
     550:	4093      	lsls	r3, r2
		parameters->eeprom_number_of_pages =
     552:	6043      	str	r3, [r0, #4]
	}

	/* Read the current BOOTSZ fuse value from the USER row */
	uint16_t boot_fuse_value =
			(NVM_USER_MEMORY[NVMCTRL_FUSES_BOOTPROT_Pos / 16] &
     554:	4b09      	ldr	r3, [pc, #36]	; (57c <nvm_get_parameters+0x54>)
     556:	881b      	ldrh	r3, [r3, #0]
	uint16_t boot_fuse_value =
     558:	2207      	movs	r2, #7
     55a:	4013      	ands	r3, r2
			NVMCTRL_FUSES_BOOTPROT_Msk) >> NVMCTRL_FUSES_BOOTPROT_Pos;

	/* Translate the BOOTSZ fuse byte value to a number of NVM pages */
	if (boot_fuse_value == 7) {
     55c:	2b07      	cmp	r3, #7
     55e:	d008      	beq.n	572 <nvm_get_parameters+0x4a>
		parameters->bootloader_number_of_pages = 0;
	}
	else {
		parameters->bootloader_number_of_pages =
				NVMCTRL_ROW_PAGES << (7 - boot_fuse_value);
     560:	2207      	movs	r2, #7
     562:	1ad2      	subs	r2, r2, r3
     564:	2304      	movs	r3, #4
     566:	4093      	lsls	r3, r2
		parameters->bootloader_number_of_pages =
     568:	6083      	str	r3, [r0, #8]
	}
}
     56a:	4770      	bx	lr
		parameters->eeprom_number_of_pages = 0;
     56c:	2300      	movs	r3, #0
     56e:	6043      	str	r3, [r0, #4]
     570:	e7f0      	b.n	554 <nvm_get_parameters+0x2c>
		parameters->bootloader_number_of_pages = 0;
     572:	2300      	movs	r3, #0
     574:	6083      	str	r3, [r0, #8]
     576:	e7f8      	b.n	56a <nvm_get_parameters+0x42>
     578:	41004000 	.word	0x41004000
     57c:	00804000 	.word	0x00804000

00000580 <port_pin_set_config>:
 *  \param[in] config    Configuration settings for the pin
 */
void port_pin_set_config(
		const uint8_t gpio_pin,
		const struct port_config *const config)
{
     580:	b500      	push	{lr}
     582:	b083      	sub	sp, #12
{
	/* Sanity check arguments */
	Assert(config);

	/* Default configuration values */
	config->mux_position = SYSTEM_PINMUX_GPIO;
     584:	ab01      	add	r3, sp, #4
     586:	2280      	movs	r2, #128	; 0x80
     588:	701a      	strb	r2, [r3, #0]

	struct system_pinmux_config pinmux_config;
	system_pinmux_get_config_defaults(&pinmux_config);

	pinmux_config.mux_position = SYSTEM_PINMUX_GPIO;
	pinmux_config.direction    = (enum system_pinmux_pin_dir)config->direction;
     58a:	780a      	ldrb	r2, [r1, #0]
     58c:	705a      	strb	r2, [r3, #1]
	pinmux_config.input_pull   = (enum system_pinmux_pin_pull)config->input_pull;
     58e:	784a      	ldrb	r2, [r1, #1]
     590:	709a      	strb	r2, [r3, #2]
	pinmux_config.powersave    = config->powersave;
     592:	788a      	ldrb	r2, [r1, #2]
     594:	70da      	strb	r2, [r3, #3]

	system_pinmux_pin_set_config(gpio_pin, &pinmux_config);
     596:	0019      	movs	r1, r3
     598:	4b01      	ldr	r3, [pc, #4]	; (5a0 <port_pin_set_config+0x20>)
     59a:	4798      	blx	r3
}
     59c:	b003      	add	sp, #12
     59e:	bd00      	pop	{pc}
     5a0:	00000961 	.word	0x00000961

000005a4 <system_clock_source_osc8m_set_config>:
 *
 * \param[in] config  OSC8M configuration structure containing the new config
 */
void system_clock_source_osc8m_set_config(
		struct system_clock_source_osc8m_config *const config)
{
     5a4:	b570      	push	{r4, r5, r6, lr}
	SYSCTRL_OSC8M_Type temp = SYSCTRL->OSC8M;
     5a6:	490c      	ldr	r1, [pc, #48]	; (5d8 <system_clock_source_osc8m_set_config+0x34>)
     5a8:	6a0b      	ldr	r3, [r1, #32]

	/* Use temporary struct to reduce register access */
	temp.bit.PRESC    = config->prescaler;
     5aa:	7804      	ldrb	r4, [r0, #0]
	temp.bit.ONDEMAND = config->on_demand;
     5ac:	7885      	ldrb	r5, [r0, #2]
	temp.bit.RUNSTDBY = config->run_in_standby;

	SYSCTRL->OSC8M = temp;
     5ae:	7840      	ldrb	r0, [r0, #1]
     5b0:	2201      	movs	r2, #1
     5b2:	4010      	ands	r0, r2
     5b4:	0180      	lsls	r0, r0, #6
     5b6:	2640      	movs	r6, #64	; 0x40
     5b8:	43b3      	bics	r3, r6
     5ba:	4303      	orrs	r3, r0
     5bc:	402a      	ands	r2, r5
     5be:	01d2      	lsls	r2, r2, #7
     5c0:	2080      	movs	r0, #128	; 0x80
     5c2:	4383      	bics	r3, r0
     5c4:	4313      	orrs	r3, r2
     5c6:	2203      	movs	r2, #3
     5c8:	4022      	ands	r2, r4
     5ca:	0212      	lsls	r2, r2, #8
     5cc:	4803      	ldr	r0, [pc, #12]	; (5dc <system_clock_source_osc8m_set_config+0x38>)
     5ce:	4003      	ands	r3, r0
     5d0:	4313      	orrs	r3, r2
     5d2:	620b      	str	r3, [r1, #32]
}
     5d4:	bd70      	pop	{r4, r5, r6, pc}
     5d6:	46c0      	nop			; (mov r8, r8)
     5d8:	40000800 	.word	0x40000800
     5dc:	fffffcff 	.word	0xfffffcff

000005e0 <system_clock_source_enable>:
 *                                 device
 */
enum status_code system_clock_source_enable(
		const enum system_clock_source clock_source)
{
	switch (clock_source) {
     5e0:	2808      	cmp	r0, #8
     5e2:	d803      	bhi.n	5ec <system_clock_source_enable+0xc>
     5e4:	0080      	lsls	r0, r0, #2
     5e6:	4b25      	ldr	r3, [pc, #148]	; (67c <system_clock_source_enable+0x9c>)
     5e8:	581b      	ldr	r3, [r3, r0]
     5ea:	469f      	mov	pc, r3
		/* Always enabled */
		return STATUS_OK;

	default:
		Assert(false);
		return STATUS_ERR_INVALID_ARG;
     5ec:	2017      	movs	r0, #23
     5ee:	e044      	b.n	67a <system_clock_source_enable+0x9a>
		SYSCTRL->OSC8M.reg |= SYSCTRL_OSC8M_ENABLE;
     5f0:	4a23      	ldr	r2, [pc, #140]	; (680 <system_clock_source_enable+0xa0>)
     5f2:	6a13      	ldr	r3, [r2, #32]
     5f4:	2102      	movs	r1, #2
     5f6:	430b      	orrs	r3, r1
     5f8:	6213      	str	r3, [r2, #32]
		return STATUS_OK;
     5fa:	2000      	movs	r0, #0
     5fc:	e03d      	b.n	67a <system_clock_source_enable+0x9a>
		SYSCTRL->OSC32K.reg |= SYSCTRL_OSC32K_ENABLE;
     5fe:	4a20      	ldr	r2, [pc, #128]	; (680 <system_clock_source_enable+0xa0>)
     600:	6993      	ldr	r3, [r2, #24]
     602:	2102      	movs	r1, #2
     604:	430b      	orrs	r3, r1
     606:	6193      	str	r3, [r2, #24]
	}

	return STATUS_OK;
     608:	2000      	movs	r0, #0
		break;
     60a:	e036      	b.n	67a <system_clock_source_enable+0x9a>
		SYSCTRL->XOSC.reg |= SYSCTRL_XOSC_ENABLE;
     60c:	4a1c      	ldr	r2, [pc, #112]	; (680 <system_clock_source_enable+0xa0>)
     60e:	8a13      	ldrh	r3, [r2, #16]
     610:	2102      	movs	r1, #2
     612:	430b      	orrs	r3, r1
     614:	8213      	strh	r3, [r2, #16]
	return STATUS_OK;
     616:	2000      	movs	r0, #0
		break;
     618:	e02f      	b.n	67a <system_clock_source_enable+0x9a>
		SYSCTRL->XOSC32K.reg |= SYSCTRL_XOSC32K_ENABLE;
     61a:	4a19      	ldr	r2, [pc, #100]	; (680 <system_clock_source_enable+0xa0>)
     61c:	8a93      	ldrh	r3, [r2, #20]
     61e:	2102      	movs	r1, #2
     620:	430b      	orrs	r3, r1
     622:	8293      	strh	r3, [r2, #20]
	return STATUS_OK;
     624:	2000      	movs	r0, #0
		break;
     626:	e028      	b.n	67a <system_clock_source_enable+0x9a>
		_system_clock_inst.dfll.control |= SYSCTRL_DFLLCTRL_ENABLE;
     628:	4916      	ldr	r1, [pc, #88]	; (684 <system_clock_source_enable+0xa4>)
     62a:	680b      	ldr	r3, [r1, #0]
     62c:	2202      	movs	r2, #2
     62e:	4313      	orrs	r3, r2
     630:	600b      	str	r3, [r1, #0]
	SYSCTRL->DFLLCTRL.reg = SYSCTRL_DFLLCTRL_ENABLE;
     632:	4b13      	ldr	r3, [pc, #76]	; (680 <system_clock_source_enable+0xa0>)
     634:	849a      	strh	r2, [r3, #36]	; 0x24
	while (!(SYSCTRL->PCLKSR.reg & SYSCTRL_PCLKSR_DFLLRDY)) {
     636:	0019      	movs	r1, r3
     638:	320e      	adds	r2, #14
     63a:	68cb      	ldr	r3, [r1, #12]
     63c:	421a      	tst	r2, r3
     63e:	d0fc      	beq.n	63a <system_clock_source_enable+0x5a>
	SYSCTRL->DFLLMUL.reg = _system_clock_inst.dfll.mul;
     640:	4a10      	ldr	r2, [pc, #64]	; (684 <system_clock_source_enable+0xa4>)
     642:	6891      	ldr	r1, [r2, #8]
     644:	4b0e      	ldr	r3, [pc, #56]	; (680 <system_clock_source_enable+0xa0>)
     646:	62d9      	str	r1, [r3, #44]	; 0x2c
	SYSCTRL->DFLLVAL.reg = _system_clock_inst.dfll.val;
     648:	6852      	ldr	r2, [r2, #4]
     64a:	629a      	str	r2, [r3, #40]	; 0x28
	SYSCTRL->DFLLCTRL.reg = 0;
     64c:	2200      	movs	r2, #0
     64e:	849a      	strh	r2, [r3, #36]	; 0x24
	while (!(SYSCTRL->PCLKSR.reg & SYSCTRL_PCLKSR_DFLLRDY)) {
     650:	0019      	movs	r1, r3
     652:	3210      	adds	r2, #16
     654:	68cb      	ldr	r3, [r1, #12]
     656:	421a      	tst	r2, r3
     658:	d0fc      	beq.n	654 <system_clock_source_enable+0x74>
	SYSCTRL->DFLLCTRL.reg = _system_clock_inst.dfll.control;
     65a:	4b0a      	ldr	r3, [pc, #40]	; (684 <system_clock_source_enable+0xa4>)
     65c:	681b      	ldr	r3, [r3, #0]
     65e:	b29b      	uxth	r3, r3
     660:	4a07      	ldr	r2, [pc, #28]	; (680 <system_clock_source_enable+0xa0>)
     662:	8493      	strh	r3, [r2, #36]	; 0x24
	return STATUS_OK;
     664:	2000      	movs	r0, #0
     666:	e008      	b.n	67a <system_clock_source_enable+0x9a>
		SYSCTRL->DPLLCTRLA.reg |= SYSCTRL_DPLLCTRLA_ENABLE;
     668:	4905      	ldr	r1, [pc, #20]	; (680 <system_clock_source_enable+0xa0>)
     66a:	2244      	movs	r2, #68	; 0x44
     66c:	5c8b      	ldrb	r3, [r1, r2]
     66e:	2002      	movs	r0, #2
     670:	4303      	orrs	r3, r0
     672:	548b      	strb	r3, [r1, r2]
	return STATUS_OK;
     674:	2000      	movs	r0, #0
		break;
     676:	e000      	b.n	67a <system_clock_source_enable+0x9a>
		return STATUS_OK;
     678:	2000      	movs	r0, #0
}
     67a:	4770      	bx	lr
     67c:	000012e0 	.word	0x000012e0
     680:	40000800 	.word	0x40000800
     684:	20000048 	.word	0x20000048

00000688 <system_clock_init>:
 * \note OSC8M is always enabled and if user selects other clocks for GCLK generators,
 * the OSC8M default enable can be disabled after system_clock_init. Make sure the
 * clock switch successfully before disabling OSC8M.
 */
void system_clock_init(void)
{
     688:	b530      	push	{r4, r5, lr}
     68a:	b085      	sub	sp, #20
	/* Various bits in the INTFLAG register can be set to one at startup.
	   This will ensure that these bits are cleared */
	SYSCTRL->INTFLAG.reg = SYSCTRL_INTFLAG_BOD33RDY | SYSCTRL_INTFLAG_BOD33DET |
     68c:	22c2      	movs	r2, #194	; 0xc2
     68e:	00d2      	lsls	r2, r2, #3
     690:	4b1a      	ldr	r3, [pc, #104]	; (6fc <system_clock_init+0x74>)
     692:	609a      	str	r2, [r3, #8]
static inline void system_flash_set_waitstates(uint8_t wait_states)
{
	Assert(NVMCTRL_CTRLB_RWS((uint32_t)wait_states) ==
			((uint32_t)wait_states << NVMCTRL_CTRLB_RWS_Pos));

	NVMCTRL->CTRLB.bit.RWS = wait_states;
     694:	4a1a      	ldr	r2, [pc, #104]	; (700 <system_clock_init+0x78>)
     696:	6853      	ldr	r3, [r2, #4]
     698:	211e      	movs	r1, #30
     69a:	438b      	bics	r3, r1
     69c:	6053      	str	r3, [r2, #4]
	gclk_conf.source_generator = GCLK_GENERATOR_1;
     69e:	2301      	movs	r3, #1
     6a0:	466a      	mov	r2, sp
     6a2:	7013      	strb	r3, [r2, #0]
	for (gclk_id = 0; gclk_id < GCLK_NUM; gclk_id++) {
     6a4:	2400      	movs	r4, #0
		system_gclk_chan_set_config(gclk_id, &gclk_conf);
     6a6:	4d17      	ldr	r5, [pc, #92]	; (704 <system_clock_init+0x7c>)
     6a8:	b2e0      	uxtb	r0, r4
     6aa:	4669      	mov	r1, sp
     6ac:	47a8      	blx	r5
	for (gclk_id = 0; gclk_id < GCLK_NUM; gclk_id++) {
     6ae:	3401      	adds	r4, #1
     6b0:	2c25      	cmp	r4, #37	; 0x25
     6b2:	d1f9      	bne.n	6a8 <system_clock_init+0x20>
	config->run_in_standby  = false;
     6b4:	a803      	add	r0, sp, #12
     6b6:	2400      	movs	r4, #0
     6b8:	7044      	strb	r4, [r0, #1]
	config->on_demand       = true;
     6ba:	2501      	movs	r5, #1
     6bc:	7085      	strb	r5, [r0, #2]

	/* OSC8M */
	struct system_clock_source_osc8m_config osc8m_conf;
	system_clock_source_osc8m_get_config_defaults(&osc8m_conf);

	osc8m_conf.prescaler       = CONF_CLOCK_OSC8M_PRESCALER;
     6be:	7004      	strb	r4, [r0, #0]
	osc8m_conf.on_demand       = CONF_CLOCK_OSC8M_ON_DEMAND;
	osc8m_conf.run_in_standby  = CONF_CLOCK_OSC8M_RUN_IN_STANDBY;

	system_clock_source_osc8m_set_config(&osc8m_conf);
     6c0:	4b11      	ldr	r3, [pc, #68]	; (708 <system_clock_init+0x80>)
     6c2:	4798      	blx	r3
	system_clock_source_enable(SYSTEM_CLOCK_SOURCE_OSC8M);
     6c4:	2006      	movs	r0, #6
     6c6:	4b11      	ldr	r3, [pc, #68]	; (70c <system_clock_init+0x84>)
     6c8:	4798      	blx	r3


	/* GCLK */
#if CONF_CLOCK_CONFIGURE_GCLK == true
	system_gclk_init();
     6ca:	4b11      	ldr	r3, [pc, #68]	; (710 <system_clock_init+0x88>)
     6cc:	4798      	blx	r3
	PM->CPUSEL.reg = (uint32_t)divider;
     6ce:	4b11      	ldr	r3, [pc, #68]	; (714 <system_clock_init+0x8c>)
     6d0:	721c      	strb	r4, [r3, #8]
			PM->APBASEL.reg = (uint32_t)divider;
     6d2:	725c      	strb	r4, [r3, #9]
			PM->APBBSEL.reg = (uint32_t)divider;
     6d4:	729c      	strb	r4, [r3, #10]
			PM->APBCSEL.reg = (uint32_t)divider;
     6d6:	72dc      	strb	r4, [r3, #11]
{
	/* Sanity check arguments */
	Assert(config);

	/* Default configuration values */
	config->division_factor    = 1;
     6d8:	9501      	str	r5, [sp, #4]
	config->high_when_disabled = false;
     6da:	466b      	mov	r3, sp
     6dc:	705c      	strb	r4, [r3, #1]
#if SAML21 || SAML22  || SAMR30
	config->source_clock       = GCLK_SOURCE_OSC16M;
#elif (SAMC20) || (SAMC21)
	config->source_clock       = GCLK_SOURCE_OSC48M;
#else
	config->source_clock       = GCLK_SOURCE_OSC8M;
     6de:	2306      	movs	r3, #6
     6e0:	466a      	mov	r2, sp
     6e2:	7013      	strb	r3, [r2, #0]
#endif
	config->run_in_standby     = false;
     6e4:	7214      	strb	r4, [r2, #8]
	config->output_enable      = false;
     6e6:	7254      	strb	r4, [r2, #9]
	system_apb_clock_set_divider(SYSTEM_CLOCK_APB_APBC, CONF_CLOCK_APBC_DIVIDER);

	/* GCLK 0 */
#if CONF_CLOCK_CONFIGURE_GCLK == true
	/* Configure the main GCLK last as it might depend on other generators */
	_CONF_CLOCK_GCLK_CONFIG(0, ~);
     6e8:	4669      	mov	r1, sp
     6ea:	2000      	movs	r0, #0
     6ec:	4b0a      	ldr	r3, [pc, #40]	; (718 <system_clock_init+0x90>)
     6ee:	4798      	blx	r3
     6f0:	2000      	movs	r0, #0
     6f2:	4b0a      	ldr	r3, [pc, #40]	; (71c <system_clock_init+0x94>)
     6f4:	4798      	blx	r3
#endif
}
     6f6:	b005      	add	sp, #20
     6f8:	bd30      	pop	{r4, r5, pc}
     6fa:	46c0      	nop			; (mov r8, r8)
     6fc:	40000800 	.word	0x40000800
     700:	41004000 	.word	0x41004000
     704:	0000089d 	.word	0x0000089d
     708:	000005a5 	.word	0x000005a5
     70c:	000005e1 	.word	0x000005e1
     710:	00000721 	.word	0x00000721
     714:	40000400 	.word	0x40000400
     718:	00000745 	.word	0x00000745
     71c:	000007fd 	.word	0x000007fd

00000720 <system_gclk_init>:
			PM->APBAMASK.reg |= mask;
     720:	4a06      	ldr	r2, [pc, #24]	; (73c <system_gclk_init+0x1c>)
     722:	6993      	ldr	r3, [r2, #24]
     724:	2108      	movs	r1, #8
     726:	430b      	orrs	r3, r1
     728:	6193      	str	r3, [r2, #24]
{
	/* Turn on the digital interface clock */
	system_apb_clock_set_mask(SYSTEM_CLOCK_APB_APBA, PM_APBAMASK_GCLK);

	/* Software reset the module to ensure it is re-initialized correctly */
	GCLK->CTRL.reg = GCLK_CTRL_SWRST;
     72a:	2201      	movs	r2, #1
     72c:	4b04      	ldr	r3, [pc, #16]	; (740 <system_gclk_init+0x20>)
     72e:	701a      	strb	r2, [r3, #0]
	while (GCLK->CTRL.reg & GCLK_CTRL_SWRST) {
     730:	0019      	movs	r1, r3
     732:	780b      	ldrb	r3, [r1, #0]
     734:	4213      	tst	r3, r2
     736:	d1fc      	bne.n	732 <system_gclk_init+0x12>
		/* Wait for reset to complete */
	}
}
     738:	4770      	bx	lr
     73a:	46c0      	nop			; (mov r8, r8)
     73c:	40000400 	.word	0x40000400
     740:	40000c00 	.word	0x40000c00

00000744 <system_gclk_gen_set_config>:
 * \param[in] config     Configuration settings for the generator
 */
void system_gclk_gen_set_config(
		const uint8_t generator,
		struct system_gclk_gen_config *const config)
{
     744:	b570      	push	{r4, r5, r6, lr}
     746:	0006      	movs	r6, r0
	/* Sanity check arguments */
	Assert(config);

	/* Cache new register configurations to minimize sync requirements. */
	uint32_t new_genctrl_config = (generator << GCLK_GENCTRL_ID_Pos);
     748:	0004      	movs	r4, r0
	uint32_t new_gendiv_config  = (generator << GCLK_GENDIV_ID_Pos);

	/* Select the requested source clock for the generator */
	new_genctrl_config |= config->source_clock << GCLK_GENCTRL_SRC_Pos;
     74a:	780d      	ldrb	r5, [r1, #0]
     74c:	022d      	lsls	r5, r5, #8
     74e:	4305      	orrs	r5, r0

	/* Configure the clock to be either high or low when disabled */
	if (config->high_when_disabled) {
     750:	784b      	ldrb	r3, [r1, #1]
     752:	2b00      	cmp	r3, #0
     754:	d002      	beq.n	75c <system_gclk_gen_set_config+0x18>
		new_genctrl_config |= GCLK_GENCTRL_OOV;
     756:	2380      	movs	r3, #128	; 0x80
     758:	02db      	lsls	r3, r3, #11
     75a:	431d      	orrs	r5, r3
	}

	/* Configure if the clock output to I/O pin should be enabled. */
	if (config->output_enable) {
     75c:	7a4b      	ldrb	r3, [r1, #9]
     75e:	2b00      	cmp	r3, #0
     760:	d002      	beq.n	768 <system_gclk_gen_set_config+0x24>
		new_genctrl_config |= GCLK_GENCTRL_OE;
     762:	2380      	movs	r3, #128	; 0x80
     764:	031b      	lsls	r3, r3, #12
     766:	431d      	orrs	r5, r3
	}

	/* Set division factor */
	if (config->division_factor > 1) {
     768:	6848      	ldr	r0, [r1, #4]
     76a:	2801      	cmp	r0, #1
     76c:	d910      	bls.n	790 <system_gclk_gen_set_config+0x4c>
		/* Check if division is a power of two */
		if (((config->division_factor & (config->division_factor - 1)) == 0)) {
     76e:	1e43      	subs	r3, r0, #1
     770:	4218      	tst	r0, r3
     772:	d134      	bne.n	7de <system_gclk_gen_set_config+0x9a>
			 * register */

			uint32_t div2_count = 0;

			uint32_t mask;
			for (mask = (1UL << 1); mask < config->division_factor;
     774:	2802      	cmp	r0, #2
     776:	d930      	bls.n	7da <system_gclk_gen_set_config+0x96>
     778:	2302      	movs	r3, #2
     77a:	2200      	movs	r2, #0
						mask <<= 1) {
				div2_count++;
     77c:	3201      	adds	r2, #1
						mask <<= 1) {
     77e:	005b      	lsls	r3, r3, #1
			for (mask = (1UL << 1); mask < config->division_factor;
     780:	4298      	cmp	r0, r3
     782:	d8fb      	bhi.n	77c <system_gclk_gen_set_config+0x38>
			}

			/* Set binary divider power of 2 division factor */
			new_gendiv_config  |= div2_count << GCLK_GENDIV_DIV_Pos;
     784:	0212      	lsls	r2, r2, #8
     786:	4332      	orrs	r2, r6
     788:	0014      	movs	r4, r2
			new_genctrl_config |= GCLK_GENCTRL_DIVSEL;
     78a:	2380      	movs	r3, #128	; 0x80
     78c:	035b      	lsls	r3, r3, #13
     78e:	431d      	orrs	r5, r3
		}

	}

	/* Enable or disable the clock in standby mode */
	if (config->run_in_standby) {
     790:	7a0b      	ldrb	r3, [r1, #8]
     792:	2b00      	cmp	r3, #0
     794:	d002      	beq.n	79c <system_gclk_gen_set_config+0x58>
		new_genctrl_config |= GCLK_GENCTRL_RUNSTDBY;
     796:	2380      	movs	r3, #128	; 0x80
     798:	039b      	lsls	r3, r3, #14
     79a:	431d      	orrs	r5, r3
	if (GCLK->STATUS.reg & GCLK_STATUS_SYNCBUSY){
     79c:	4a13      	ldr	r2, [pc, #76]	; (7ec <system_gclk_gen_set_config+0xa8>)
     79e:	7853      	ldrb	r3, [r2, #1]
	}

	while (system_gclk_is_syncing()) {
     7a0:	b25b      	sxtb	r3, r3
     7a2:	2b00      	cmp	r3, #0
     7a4:	dbfb      	blt.n	79e <system_gclk_gen_set_config+0x5a>
 * are only re-enabled upon leaving the outermost nested critical section.
 *
 */
static inline void system_interrupt_enter_critical_section(void)
{
	cpu_irq_enter_critical();
     7a6:	4b12      	ldr	r3, [pc, #72]	; (7f0 <system_gclk_gen_set_config+0xac>)
     7a8:	4798      	blx	r3
	};

	system_interrupt_enter_critical_section();

	/* Select the correct generator */
	*((uint8_t*)&GCLK->GENDIV.reg) = generator;
     7aa:	4b12      	ldr	r3, [pc, #72]	; (7f4 <system_gclk_gen_set_config+0xb0>)
     7ac:	701e      	strb	r6, [r3, #0]
	if (GCLK->STATUS.reg & GCLK_STATUS_SYNCBUSY){
     7ae:	4a0f      	ldr	r2, [pc, #60]	; (7ec <system_gclk_gen_set_config+0xa8>)
     7b0:	7853      	ldrb	r3, [r2, #1]

	/* Write the new generator configuration */
	while (system_gclk_is_syncing()) {
     7b2:	b25b      	sxtb	r3, r3
     7b4:	2b00      	cmp	r3, #0
     7b6:	dbfb      	blt.n	7b0 <system_gclk_gen_set_config+0x6c>
		/* Wait for synchronization */
	};
	GCLK->GENDIV.reg  = new_gendiv_config;
     7b8:	4b0c      	ldr	r3, [pc, #48]	; (7ec <system_gclk_gen_set_config+0xa8>)
     7ba:	609c      	str	r4, [r3, #8]
	if (GCLK->STATUS.reg & GCLK_STATUS_SYNCBUSY){
     7bc:	001a      	movs	r2, r3
     7be:	7853      	ldrb	r3, [r2, #1]

	while (system_gclk_is_syncing()) {
     7c0:	b25b      	sxtb	r3, r3
     7c2:	2b00      	cmp	r3, #0
     7c4:	dbfb      	blt.n	7be <system_gclk_gen_set_config+0x7a>
		/* Wait for synchronization */
	};
	GCLK->GENCTRL.reg = new_genctrl_config | (GCLK->GENCTRL.reg & GCLK_GENCTRL_GENEN);
     7c6:	4a09      	ldr	r2, [pc, #36]	; (7ec <system_gclk_gen_set_config+0xa8>)
     7c8:	6853      	ldr	r3, [r2, #4]
     7ca:	2180      	movs	r1, #128	; 0x80
     7cc:	0249      	lsls	r1, r1, #9
     7ce:	400b      	ands	r3, r1
     7d0:	431d      	orrs	r5, r3
     7d2:	6055      	str	r5, [r2, #4]
 * are only re-enabled upon leaving the outermost nested critical section.
 *
 */
static inline void system_interrupt_leave_critical_section(void)
{
	cpu_irq_leave_critical();
     7d4:	4b08      	ldr	r3, [pc, #32]	; (7f8 <system_gclk_gen_set_config+0xb4>)
     7d6:	4798      	blx	r3

	system_interrupt_leave_critical_section();
}
     7d8:	bd70      	pop	{r4, r5, r6, pc}
			for (mask = (1UL << 1); mask < config->division_factor;
     7da:	2200      	movs	r2, #0
     7dc:	e7d2      	b.n	784 <system_gclk_gen_set_config+0x40>
					(config->division_factor) << GCLK_GENDIV_DIV_Pos;
     7de:	0204      	lsls	r4, r0, #8
			new_gendiv_config  |=
     7e0:	4334      	orrs	r4, r6
			new_genctrl_config |= GCLK_GENCTRL_IDC;
     7e2:	2380      	movs	r3, #128	; 0x80
     7e4:	029b      	lsls	r3, r3, #10
     7e6:	431d      	orrs	r5, r3
     7e8:	e7d2      	b.n	790 <system_gclk_gen_set_config+0x4c>
     7ea:	46c0      	nop			; (mov r8, r8)
     7ec:	40000c00 	.word	0x40000c00
     7f0:	00000175 	.word	0x00000175
     7f4:	40000c08 	.word	0x40000c08
     7f8:	000001b5 	.word	0x000001b5

000007fc <system_gclk_gen_enable>:
 *
 * \param[in] generator  Generic Clock Generator index to enable
 */
void system_gclk_gen_enable(
		const uint8_t generator)
{
     7fc:	b510      	push	{r4, lr}
     7fe:	0004      	movs	r4, r0
	if (GCLK->STATUS.reg & GCLK_STATUS_SYNCBUSY){
     800:	4a0b      	ldr	r2, [pc, #44]	; (830 <system_gclk_gen_enable+0x34>)
     802:	7853      	ldrb	r3, [r2, #1]
	while (system_gclk_is_syncing()) {
     804:	b25b      	sxtb	r3, r3
     806:	2b00      	cmp	r3, #0
     808:	dbfb      	blt.n	802 <system_gclk_gen_enable+0x6>
	cpu_irq_enter_critical();
     80a:	4b0a      	ldr	r3, [pc, #40]	; (834 <system_gclk_gen_enable+0x38>)
     80c:	4798      	blx	r3
	};

	system_interrupt_enter_critical_section();

	/* Select the requested generator */
	*((uint8_t*)&GCLK->GENCTRL.reg) = generator;
     80e:	4b0a      	ldr	r3, [pc, #40]	; (838 <system_gclk_gen_enable+0x3c>)
     810:	701c      	strb	r4, [r3, #0]
	if (GCLK->STATUS.reg & GCLK_STATUS_SYNCBUSY){
     812:	4a07      	ldr	r2, [pc, #28]	; (830 <system_gclk_gen_enable+0x34>)
     814:	7853      	ldrb	r3, [r2, #1]
	while (system_gclk_is_syncing()) {
     816:	b25b      	sxtb	r3, r3
     818:	2b00      	cmp	r3, #0
     81a:	dbfb      	blt.n	814 <system_gclk_gen_enable+0x18>
		/* Wait for synchronization */
	};

	/* Enable generator */
	GCLK->GENCTRL.reg |= GCLK_GENCTRL_GENEN;
     81c:	4a04      	ldr	r2, [pc, #16]	; (830 <system_gclk_gen_enable+0x34>)
     81e:	6851      	ldr	r1, [r2, #4]
     820:	2380      	movs	r3, #128	; 0x80
     822:	025b      	lsls	r3, r3, #9
     824:	430b      	orrs	r3, r1
     826:	6053      	str	r3, [r2, #4]
	cpu_irq_leave_critical();
     828:	4b04      	ldr	r3, [pc, #16]	; (83c <system_gclk_gen_enable+0x40>)
     82a:	4798      	blx	r3

	system_interrupt_leave_critical_section();
}
     82c:	bd10      	pop	{r4, pc}
     82e:	46c0      	nop			; (mov r8, r8)
     830:	40000c00 	.word	0x40000c00
     834:	00000175 	.word	0x00000175
     838:	40000c04 	.word	0x40000c04
     83c:	000001b5 	.word	0x000001b5

00000840 <system_gclk_chan_disable>:
 *
 * \param[in] channel  Generic Clock channel to disable
 */
void system_gclk_chan_disable(
		const uint8_t channel)
{
     840:	b510      	push	{r4, lr}
     842:	0004      	movs	r4, r0
	cpu_irq_enter_critical();
     844:	4b0f      	ldr	r3, [pc, #60]	; (884 <system_gclk_chan_disable+0x44>)
     846:	4798      	blx	r3
	system_interrupt_enter_critical_section();

	/* Select the requested generator channel */
	*((uint8_t*)&GCLK->CLKCTRL.reg) = channel;
     848:	4b0f      	ldr	r3, [pc, #60]	; (888 <system_gclk_chan_disable+0x48>)
     84a:	701c      	strb	r4, [r3, #0]

	/* Sanity check WRTLOCK */
	Assert(!GCLK->CLKCTRL.bit.WRTLOCK);

	/* Switch to known-working source so that the channel can be disabled */
	uint32_t prev_gen_id = GCLK->CLKCTRL.bit.GEN;
     84c:	4a0f      	ldr	r2, [pc, #60]	; (88c <system_gclk_chan_disable+0x4c>)
     84e:	8853      	ldrh	r3, [r2, #2]
     850:	051b      	lsls	r3, r3, #20
     852:	0f18      	lsrs	r0, r3, #28
	GCLK->CLKCTRL.bit.GEN = 0;
     854:	8853      	ldrh	r3, [r2, #2]
     856:	490e      	ldr	r1, [pc, #56]	; (890 <system_gclk_chan_disable+0x50>)
     858:	400b      	ands	r3, r1
     85a:	8053      	strh	r3, [r2, #2]

	/* Disable the generic clock */
	GCLK->CLKCTRL.reg &= ~GCLK_CLKCTRL_CLKEN;
     85c:	8853      	ldrh	r3, [r2, #2]
     85e:	490d      	ldr	r1, [pc, #52]	; (894 <system_gclk_chan_disable+0x54>)
     860:	400b      	ands	r3, r1
     862:	8053      	strh	r3, [r2, #2]
	while (GCLK->CLKCTRL.reg & GCLK_CLKCTRL_CLKEN) {
     864:	0011      	movs	r1, r2
     866:	2280      	movs	r2, #128	; 0x80
     868:	01d2      	lsls	r2, r2, #7
     86a:	884b      	ldrh	r3, [r1, #2]
     86c:	4213      	tst	r3, r2
     86e:	d1fc      	bne.n	86a <system_gclk_chan_disable+0x2a>
		/* Wait for clock to become disabled */
	}

	/* Restore previous configured clock generator */
	GCLK->CLKCTRL.bit.GEN = prev_gen_id;
     870:	4906      	ldr	r1, [pc, #24]	; (88c <system_gclk_chan_disable+0x4c>)
     872:	884a      	ldrh	r2, [r1, #2]
     874:	0203      	lsls	r3, r0, #8
     876:	4806      	ldr	r0, [pc, #24]	; (890 <system_gclk_chan_disable+0x50>)
     878:	4002      	ands	r2, r0
     87a:	4313      	orrs	r3, r2
     87c:	804b      	strh	r3, [r1, #2]
	cpu_irq_leave_critical();
     87e:	4b06      	ldr	r3, [pc, #24]	; (898 <system_gclk_chan_disable+0x58>)
     880:	4798      	blx	r3

	system_interrupt_leave_critical_section();
}
     882:	bd10      	pop	{r4, pc}
     884:	00000175 	.word	0x00000175
     888:	40000c02 	.word	0x40000c02
     88c:	40000c00 	.word	0x40000c00
     890:	fffff0ff 	.word	0xfffff0ff
     894:	ffffbfff 	.word	0xffffbfff
     898:	000001b5 	.word	0x000001b5

0000089c <system_gclk_chan_set_config>:
{
     89c:	b510      	push	{r4, lr}
	new_clkctrl_config |= config->source_generator << GCLK_CLKCTRL_GEN_Pos;
     89e:	780c      	ldrb	r4, [r1, #0]
     8a0:	0224      	lsls	r4, r4, #8
     8a2:	4304      	orrs	r4, r0
	system_gclk_chan_disable(channel);
     8a4:	4b02      	ldr	r3, [pc, #8]	; (8b0 <system_gclk_chan_set_config+0x14>)
     8a6:	4798      	blx	r3
	GCLK->CLKCTRL.reg = new_clkctrl_config;
     8a8:	b2a4      	uxth	r4, r4
     8aa:	4b02      	ldr	r3, [pc, #8]	; (8b4 <system_gclk_chan_set_config+0x18>)
     8ac:	805c      	strh	r4, [r3, #2]
}
     8ae:	bd10      	pop	{r4, pc}
     8b0:	00000841 	.word	0x00000841
     8b4:	40000c00 	.word	0x40000c00

000008b8 <_system_pinmux_config>:
 */
static void _system_pinmux_config(
		PortGroup *const port,
		const uint32_t pin_mask,
		const struct system_pinmux_config *const config)
{
     8b8:	b530      	push	{r4, r5, lr}

	/* Track the configuration bits into a temporary variable before writing */
	uint32_t pin_cfg = 0;

	/* Enabled powersave mode, don't create configuration */
	if (!config->powersave) {
     8ba:	78d3      	ldrb	r3, [r2, #3]
     8bc:	2b00      	cmp	r3, #0
     8be:	d135      	bne.n	92c <_system_pinmux_config+0x74>
		/* Enable the pin peripheral MUX flag if non-GPIO selected (pinmux will
		 * be written later) and store the new MUX mask */
		if (config->mux_position != SYSTEM_PINMUX_GPIO) {
     8c0:	7813      	ldrb	r3, [r2, #0]
     8c2:	2b80      	cmp	r3, #128	; 0x80
     8c4:	d029      	beq.n	91a <_system_pinmux_config+0x62>
			pin_cfg |= PORT_WRCONFIG_PMUXEN;
			pin_cfg |= (config->mux_position << PORT_WRCONFIG_PMUX_Pos);
     8c6:	061b      	lsls	r3, r3, #24
     8c8:	2480      	movs	r4, #128	; 0x80
     8ca:	0264      	lsls	r4, r4, #9
     8cc:	4323      	orrs	r3, r4
		}

		/* Check if the user has requested that the input buffer be enabled */
		if ((config->direction == SYSTEM_PINMUX_PIN_DIR_INPUT) ||
     8ce:	7854      	ldrb	r4, [r2, #1]
     8d0:	2502      	movs	r5, #2
     8d2:	43ac      	bics	r4, r5
     8d4:	d106      	bne.n	8e4 <_system_pinmux_config+0x2c>
				(config->direction == SYSTEM_PINMUX_PIN_DIR_OUTPUT_WITH_READBACK)) {
			/* Enable input buffer flag */
			pin_cfg |= PORT_WRCONFIG_INEN;

			/* Enable pull-up/pull-down control flag if requested */
			if (config->input_pull != SYSTEM_PINMUX_PIN_PULL_NONE) {
     8d6:	7894      	ldrb	r4, [r2, #2]
     8d8:	2c00      	cmp	r4, #0
     8da:	d120      	bne.n	91e <_system_pinmux_config+0x66>
			pin_cfg |= PORT_WRCONFIG_INEN;
     8dc:	2480      	movs	r4, #128	; 0x80
     8de:	02a4      	lsls	r4, r4, #10
     8e0:	4323      	orrs	r3, r4
				pin_cfg |= PORT_WRCONFIG_PULLEN;
			}

			/* Clear the port DIR bits to disable the output buffer */
			port->DIRCLR.reg = pin_mask;
     8e2:	6041      	str	r1, [r0, #4]
		}

		/* Check if the user has requested that the output buffer be enabled */
		if ((config->direction == SYSTEM_PINMUX_PIN_DIR_OUTPUT) ||
     8e4:	7854      	ldrb	r4, [r2, #1]
     8e6:	3c01      	subs	r4, #1
     8e8:	2c01      	cmp	r4, #1
     8ea:	d91c      	bls.n	926 <_system_pinmux_config+0x6e>
		port->DIRCLR.reg = pin_mask;
	}

	/* The Write Configuration register (WRCONFIG) requires the
	 * pins to to grouped into two 16-bit half-words - split them out here */
	uint32_t lower_pin_mask = (pin_mask & 0xFFFF);
     8ec:	040d      	lsls	r5, r1, #16
     8ee:	0c2d      	lsrs	r5, r5, #16

	/* Configure the lower 16-bits of the port to the desired configuration,
	 * including the pin peripheral multiplexer just in case it is enabled */
	port->WRCONFIG.reg
		= (lower_pin_mask << PORT_WRCONFIG_PINMASK_Pos) |
			pin_cfg | PORT_WRCONFIG_WRPMUX | PORT_WRCONFIG_WRPINCFG;
     8f0:	24a0      	movs	r4, #160	; 0xa0
     8f2:	05e4      	lsls	r4, r4, #23
     8f4:	432c      	orrs	r4, r5
     8f6:	431c      	orrs	r4, r3
		= (lower_pin_mask << PORT_WRCONFIG_PINMASK_Pos) |
     8f8:	6284      	str	r4, [r0, #40]	; 0x28
	uint32_t upper_pin_mask = (pin_mask >> 16);
     8fa:	0c0d      	lsrs	r5, r1, #16

	/* Configure the upper 16-bits of the port to the desired configuration,
	 * including the pin peripheral multiplexer just in case it is enabled */
	port->WRCONFIG.reg
		= (upper_pin_mask << PORT_WRCONFIG_PINMASK_Pos) |
			pin_cfg | PORT_WRCONFIG_WRPMUX | PORT_WRCONFIG_WRPINCFG |
     8fc:	24d0      	movs	r4, #208	; 0xd0
     8fe:	0624      	lsls	r4, r4, #24
     900:	432c      	orrs	r4, r5
     902:	431c      	orrs	r4, r3
		= (upper_pin_mask << PORT_WRCONFIG_PINMASK_Pos) |
     904:	6284      	str	r4, [r0, #40]	; 0x28
			PORT_WRCONFIG_HWSEL;

	if(!config->powersave) {
     906:	78d4      	ldrb	r4, [r2, #3]
     908:	2c00      	cmp	r4, #0
     90a:	d122      	bne.n	952 <_system_pinmux_config+0x9a>
		/* Set the pull-up state once the port pins are configured if one was
		 * requested and it does not violate the valid set of port
		 * configurations */
		if (pin_cfg & PORT_WRCONFIG_PULLEN) {
     90c:	035b      	lsls	r3, r3, #13
     90e:	d51c      	bpl.n	94a <_system_pinmux_config+0x92>
			/* Set the OUT register bits to enable the pull-up if requested,
			 * clear to enable pull-down */
			if (config->input_pull == SYSTEM_PINMUX_PIN_PULL_UP) {
     910:	7893      	ldrb	r3, [r2, #2]
     912:	2b01      	cmp	r3, #1
     914:	d01e      	beq.n	954 <_system_pinmux_config+0x9c>
				port->OUTSET.reg = pin_mask;
			} else {
				port->OUTCLR.reg = pin_mask;
     916:	6141      	str	r1, [r0, #20]
     918:	e017      	b.n	94a <_system_pinmux_config+0x92>
	uint32_t pin_cfg = 0;
     91a:	2300      	movs	r3, #0
     91c:	e7d7      	b.n	8ce <_system_pinmux_config+0x16>
				pin_cfg |= PORT_WRCONFIG_PULLEN;
     91e:	24c0      	movs	r4, #192	; 0xc0
     920:	02e4      	lsls	r4, r4, #11
     922:	4323      	orrs	r3, r4
     924:	e7dd      	b.n	8e2 <_system_pinmux_config+0x2a>
			pin_cfg &= ~PORT_WRCONFIG_PULLEN;
     926:	4c0d      	ldr	r4, [pc, #52]	; (95c <_system_pinmux_config+0xa4>)
     928:	4023      	ands	r3, r4
     92a:	e7df      	b.n	8ec <_system_pinmux_config+0x34>
		port->DIRCLR.reg = pin_mask;
     92c:	6041      	str	r1, [r0, #4]
	uint32_t lower_pin_mask = (pin_mask & 0xFFFF);
     92e:	040c      	lsls	r4, r1, #16
     930:	0c24      	lsrs	r4, r4, #16
			pin_cfg | PORT_WRCONFIG_WRPMUX | PORT_WRCONFIG_WRPINCFG;
     932:	23a0      	movs	r3, #160	; 0xa0
     934:	05db      	lsls	r3, r3, #23
     936:	4323      	orrs	r3, r4
		= (lower_pin_mask << PORT_WRCONFIG_PINMASK_Pos) |
     938:	6283      	str	r3, [r0, #40]	; 0x28
	uint32_t upper_pin_mask = (pin_mask >> 16);
     93a:	0c0c      	lsrs	r4, r1, #16
			pin_cfg | PORT_WRCONFIG_WRPMUX | PORT_WRCONFIG_WRPINCFG |
     93c:	23d0      	movs	r3, #208	; 0xd0
     93e:	061b      	lsls	r3, r3, #24
     940:	4323      	orrs	r3, r4
		= (upper_pin_mask << PORT_WRCONFIG_PINMASK_Pos) |
     942:	6283      	str	r3, [r0, #40]	; 0x28
	if(!config->powersave) {
     944:	78d3      	ldrb	r3, [r2, #3]
     946:	2b00      	cmp	r3, #0
     948:	d103      	bne.n	952 <_system_pinmux_config+0x9a>
			}
		}

		/* Check if the user has requested that the output buffer be enabled */
		if ((config->direction == SYSTEM_PINMUX_PIN_DIR_OUTPUT) ||
     94a:	7853      	ldrb	r3, [r2, #1]
     94c:	3b01      	subs	r3, #1
     94e:	2b01      	cmp	r3, #1
     950:	d902      	bls.n	958 <_system_pinmux_config+0xa0>
				(config->direction == SYSTEM_PINMUX_PIN_DIR_OUTPUT_WITH_READBACK)) {
			/* Set the port DIR bits to enable the output buffer */
			port->DIRSET.reg = pin_mask;
		}
	}
}
     952:	bd30      	pop	{r4, r5, pc}
				port->OUTSET.reg = pin_mask;
     954:	6181      	str	r1, [r0, #24]
     956:	e7f8      	b.n	94a <_system_pinmux_config+0x92>
			port->DIRSET.reg = pin_mask;
     958:	6081      	str	r1, [r0, #8]
}
     95a:	e7fa      	b.n	952 <_system_pinmux_config+0x9a>
     95c:	fffbffff 	.word	0xfffbffff

00000960 <system_pinmux_pin_set_config>:
 * \param[in] config    Configuration settings for the pin
 */
void system_pinmux_pin_set_config(
		const uint8_t gpio_pin,
		const struct system_pinmux_config *const config)
{
     960:	b510      	push	{r4, lr}
     962:	000a      	movs	r2, r1
	uint8_t group_index = (gpio_pin / 32);

	/* Array of available ports */
	Port *const ports[PORT_INST_NUM] = PORT_INSTS;

	if (port_index < PORT_INST_NUM) {
     964:	09c1      	lsrs	r1, r0, #7
		return &(ports[port_index]->Group[group_index]);
	} else {
		Assert(false);
		return NULL;
     966:	2300      	movs	r3, #0
	if (port_index < PORT_INST_NUM) {
     968:	2900      	cmp	r1, #0
     96a:	d104      	bne.n	976 <system_pinmux_pin_set_config+0x16>
		return &(ports[port_index]->Group[group_index]);
     96c:	0943      	lsrs	r3, r0, #5
     96e:	01db      	lsls	r3, r3, #7
     970:	4905      	ldr	r1, [pc, #20]	; (988 <system_pinmux_pin_set_config+0x28>)
     972:	468c      	mov	ip, r1
     974:	4463      	add	r3, ip
	PortGroup *const port = system_pinmux_get_group_from_gpio_pin(gpio_pin);
	uint32_t pin_mask = (1UL << (gpio_pin % 32));
     976:	241f      	movs	r4, #31
     978:	4020      	ands	r0, r4
     97a:	2101      	movs	r1, #1
     97c:	4081      	lsls	r1, r0

	_system_pinmux_config(port, pin_mask, config);
     97e:	0018      	movs	r0, r3
     980:	4b02      	ldr	r3, [pc, #8]	; (98c <system_pinmux_pin_set_config+0x2c>)
     982:	4798      	blx	r3
}
     984:	bd10      	pop	{r4, pc}
     986:	46c0      	nop			; (mov r8, r8)
     988:	41004400 	.word	0x41004400
     98c:	000008b9 	.word	0x000008b9

00000990 <_system_dummy_init>:
 */
void _system_dummy_init(void);
void _system_dummy_init(void)
{
	return;
}
     990:	4770      	bx	lr
	...

00000994 <system_init>:
 *  - Board hardware initialization (via the Board module)
 *  - Event system driver initialization (via the EVSYS module)
 *  - External Interrupt driver initialization (via the EXTINT module)
 */
void system_init(void)
{
     994:	b510      	push	{r4, lr}
	/* Configure GCLK and clock sources according to conf_clocks.h */
	system_clock_init();
     996:	4b05      	ldr	r3, [pc, #20]	; (9ac <system_init+0x18>)
     998:	4798      	blx	r3

	/* Initialize board hardware */
	system_board_init();
     99a:	4b05      	ldr	r3, [pc, #20]	; (9b0 <system_init+0x1c>)
     99c:	4798      	blx	r3

	/* Initialize EVSYS hardware */
	_system_events_init();
     99e:	4b05      	ldr	r3, [pc, #20]	; (9b4 <system_init+0x20>)
     9a0:	4798      	blx	r3

	/* Initialize External hardware */
	_system_extint_init();
     9a2:	4b05      	ldr	r3, [pc, #20]	; (9b8 <system_init+0x24>)
     9a4:	4798      	blx	r3
	
	/* Initialize DIVAS hardware */
	_system_divas_init();
     9a6:	4b05      	ldr	r3, [pc, #20]	; (9bc <system_init+0x28>)
     9a8:	4798      	blx	r3
}
     9aa:	bd10      	pop	{r4, pc}
     9ac:	00000689 	.word	0x00000689
     9b0:	000001e5 	.word	0x000001e5
     9b4:	00000991 	.word	0x00000991
     9b8:	00000991 	.word	0x00000991
     9bc:	00000991 	.word	0x00000991

000009c0 <_eeprom_emulator_nvm_erase_row>:
 *
 *  \param[in] row  Physical row in EEPROM space to erase
 */
static void _eeprom_emulator_nvm_erase_row(
		const uint8_t row)
{
     9c0:	b570      	push	{r4, r5, r6, lr}
	enum status_code error_code = STATUS_OK;

	do {
		error_code = nvm_erase_row(
				(uint32_t)&_eeprom_instance.flash[row * NVMCTRL_ROW_PAGES]);
     9c2:	0204      	lsls	r4, r0, #8
     9c4:	4e03      	ldr	r6, [pc, #12]	; (9d4 <_eeprom_emulator_nvm_erase_row+0x14>)
		error_code = nvm_erase_row(
     9c6:	4d04      	ldr	r5, [pc, #16]	; (9d8 <_eeprom_emulator_nvm_erase_row+0x18>)
				(uint32_t)&_eeprom_instance.flash[row * NVMCTRL_ROW_PAGES]);
     9c8:	6873      	ldr	r3, [r6, #4]
     9ca:	1918      	adds	r0, r3, r4
		error_code = nvm_erase_row(
     9cc:	47a8      	blx	r5
	} while (error_code == STATUS_BUSY);
     9ce:	2805      	cmp	r0, #5
     9d0:	d0fa      	beq.n	9c8 <_eeprom_emulator_nvm_erase_row+0x8>
}
     9d2:	bd70      	pop	{r4, r5, r6, pc}
     9d4:	20000060 	.word	0x20000060
     9d8:	000004cd 	.word	0x000004cd

000009dc <_eeprom_emulator_update_page_mapping>:

/**
 * \brief Creates a map in SRAM to translate logical EEPROM pages to physical FLASH pages.
 */
static void _eeprom_emulator_update_page_mapping(void)
{
     9dc:	b5f0      	push	{r4, r5, r6, r7, lr}
     9de:	46de      	mov	lr, fp
     9e0:	4657      	mov	r7, sl
     9e2:	464e      	mov	r6, r9
     9e4:	4645      	mov	r5, r8
     9e6:	b5e0      	push	{r5, r6, r7, lr}
     9e8:	b083      	sub	sp, #12
	for (i = 0; i < _eeprom_instance.physical_pages; i=i+4) {
     9ea:	4b4d      	ldr	r3, [pc, #308]	; (b20 <_eeprom_emulator_update_page_mapping+0x144>)
     9ec:	891b      	ldrh	r3, [r3, #8]
     9ee:	2b00      	cmp	r3, #0
     9f0:	d100      	bne.n	9f4 <_eeprom_emulator_update_page_mapping+0x18>
     9f2:	e08f      	b.n	b14 <_eeprom_emulator_update_page_mapping+0x138>
     9f4:	2500      	movs	r5, #0
		uint16_t pre_logical_page = _eeprom_instance.flash[i].header.logical_page;
     9f6:	4b4a      	ldr	r3, [pc, #296]	; (b20 <_eeprom_emulator_update_page_mapping+0x144>)
     9f8:	469a      	mov	sl, r3
			uint16_t next_logical_page = _eeprom_instance.flash[j].header.logical_page;
     9fa:	001f      	movs	r7, r3
     9fc:	e027      	b.n	a4e <_eeprom_emulator_update_page_mapping+0x72>
		 _eeprom_emulator_nvm_erase_row(pre_phy_page/4);
     9fe:	9801      	ldr	r0, [sp, #4]
     a00:	4b48      	ldr	r3, [pc, #288]	; (b24 <_eeprom_emulator_update_page_mapping+0x148>)
     a02:	4798      	blx	r3
		for (j = NVMCTRL_ROW_PAGES+i; j < _eeprom_instance.physical_pages; j=j+4) {
     a04:	3404      	adds	r4, #4
     a06:	b2a4      	uxth	r4, r4
     a08:	4b45      	ldr	r3, [pc, #276]	; (b20 <_eeprom_emulator_update_page_mapping+0x144>)
     a0a:	891b      	ldrh	r3, [r3, #8]
     a0c:	42a3      	cmp	r3, r4
     a0e:	d918      	bls.n	a42 <_eeprom_emulator_update_page_mapping+0x66>
			if (j == EEPROM_MASTER_PAGE_NUMBER) {
     a10:	3b01      	subs	r3, #1
     a12:	429c      	cmp	r4, r3
     a14:	d0f6      	beq.n	a04 <_eeprom_emulator_update_page_mapping+0x28>
			uint16_t next_logical_page = _eeprom_instance.flash[j].header.logical_page;
     a16:	687a      	ldr	r2, [r7, #4]
     a18:	01a3      	lsls	r3, r4, #6
     a1a:	5cd3      	ldrb	r3, [r2, r3]
			if( next_logical_page == EEPROM_INVALID_PAGE_NUMBER) {
     a1c:	2bff      	cmp	r3, #255	; 0xff
     a1e:	d0f1      	beq.n	a04 <_eeprom_emulator_update_page_mapping+0x28>
			if(pre_logical_page == next_logical_page) {
     a20:	429e      	cmp	r6, r3
     a22:	d1ef      	bne.n	a04 <_eeprom_emulator_update_page_mapping+0x28>
		== _eeprom_instance.flash[phy_page+2].header.logical_page)
     a24:	464b      	mov	r3, r9
     a26:	5cd3      	ldrb	r3, [r2, r3]
	if((_eeprom_instance.flash[phy_page].header.logical_page
     a28:	4641      	mov	r1, r8
     a2a:	5c51      	ldrb	r1, [r2, r1]
     a2c:	4299      	cmp	r1, r3
     a2e:	d0e6      	beq.n	9fe <_eeprom_emulator_update_page_mapping+0x22>
	if(_eeprom_emulator_is_full_row(pre_phy_page)) {
     a30:	4659      	mov	r1, fp
     a32:	5c52      	ldrb	r2, [r2, r1]
     a34:	429a      	cmp	r2, r3
     a36:	d0e2      	beq.n	9fe <_eeprom_emulator_update_page_mapping+0x22>
		_eeprom_emulator_nvm_erase_row(next_phy_page/4);
     a38:	08a0      	lsrs	r0, r4, #2
     a3a:	b2c0      	uxtb	r0, r0
     a3c:	4b39      	ldr	r3, [pc, #228]	; (b24 <_eeprom_emulator_update_page_mapping+0x148>)
     a3e:	4798      	blx	r3
     a40:	e7e0      	b.n	a04 <_eeprom_emulator_update_page_mapping+0x28>
	for (i = 0; i < _eeprom_instance.physical_pages; i=i+4) {
     a42:	3504      	adds	r5, #4
     a44:	b2ad      	uxth	r5, r5
     a46:	4b36      	ldr	r3, [pc, #216]	; (b20 <_eeprom_emulator_update_page_mapping+0x144>)
     a48:	891b      	ldrh	r3, [r3, #8]
     a4a:	429d      	cmp	r5, r3
     a4c:	d217      	bcs.n	a7e <_eeprom_emulator_update_page_mapping+0xa2>
		uint16_t pre_logical_page = _eeprom_instance.flash[i].header.logical_page;
     a4e:	01ab      	lsls	r3, r5, #6
     a50:	4698      	mov	r8, r3
     a52:	4653      	mov	r3, sl
     a54:	685b      	ldr	r3, [r3, #4]
     a56:	4642      	mov	r2, r8
     a58:	5c9e      	ldrb	r6, [r3, r2]
		if( pre_logical_page == EEPROM_INVALID_PAGE_NUMBER) {
     a5a:	2eff      	cmp	r6, #255	; 0xff
     a5c:	d0f1      	beq.n	a42 <_eeprom_emulator_update_page_mapping+0x66>
		for (j = NVMCTRL_ROW_PAGES+i; j < _eeprom_instance.physical_pages; j=j+4) {
     a5e:	1d2c      	adds	r4, r5, #4
     a60:	b2a4      	uxth	r4, r4
     a62:	4b2f      	ldr	r3, [pc, #188]	; (b20 <_eeprom_emulator_update_page_mapping+0x144>)
     a64:	891b      	ldrh	r3, [r3, #8]
     a66:	429c      	cmp	r4, r3
     a68:	d209      	bcs.n	a7e <_eeprom_emulator_update_page_mapping+0xa2>
		== _eeprom_instance.flash[phy_page+2].header.logical_page)
     a6a:	2280      	movs	r2, #128	; 0x80
     a6c:	4442      	add	r2, r8
     a6e:	4691      	mov	r9, r2
		|| (_eeprom_instance.flash[phy_page+1].header.logical_page
     a70:	2240      	movs	r2, #64	; 0x40
     a72:	4442      	add	r2, r8
     a74:	4693      	mov	fp, r2
		 _eeprom_emulator_nvm_erase_row(pre_phy_page/4);
     a76:	08aa      	lsrs	r2, r5, #2
     a78:	b2d2      	uxtb	r2, r2
     a7a:	9201      	str	r2, [sp, #4]
     a7c:	e7c8      	b.n	a10 <_eeprom_emulator_update_page_mapping+0x34>
	/* Check if exists invalid logical page */
	_eeprom_emulator_check_logical_page();

	/* Scan through all physical pages, to map physical and logical pages */
	for (uint16_t c = 0; c < _eeprom_instance.physical_pages; c++) {
     a7e:	2b00      	cmp	r3, #0
     a80:	d043      	beq.n	b0a <_eeprom_emulator_update_page_mapping+0x12e>
		/* Read in the logical page stored in the current physical page */
		uint16_t logical_page = _eeprom_instance.flash[c].header.logical_page;

		/* If the logical page number is valid, add it to the mapping */
		if ((logical_page != EEPROM_INVALID_PAGE_NUMBER) &&
				(logical_page < _eeprom_instance.logical_pages)) {
     a82:	4a27      	ldr	r2, [pc, #156]	; (b20 <_eeprom_emulator_update_page_mapping+0x144>)
     a84:	7a97      	ldrb	r7, [r2, #10]
     a86:	6851      	ldr	r1, [r2, #4]
     a88:	2200      	movs	r2, #0
		if (c == EEPROM_MASTER_PAGE_NUMBER) {
     a8a:	1e5e      	subs	r6, r3, #1
			_eeprom_instance.page_map[logical_page] = c;
     a8c:	4d24      	ldr	r5, [pc, #144]	; (b20 <_eeprom_emulator_update_page_mapping+0x144>)
     a8e:	e004      	b.n	a9a <_eeprom_emulator_update_page_mapping+0xbe>
     a90:	3201      	adds	r2, #1
     a92:	3140      	adds	r1, #64	; 0x40
	for (uint16_t c = 0; c < _eeprom_instance.physical_pages; c++) {
     a94:	b290      	uxth	r0, r2
     a96:	4298      	cmp	r0, r3
     a98:	d20a      	bcs.n	ab0 <_eeprom_emulator_update_page_mapping+0xd4>
		if (c == EEPROM_MASTER_PAGE_NUMBER) {
     a9a:	4296      	cmp	r6, r2
     a9c:	d0f8      	beq.n	a90 <_eeprom_emulator_update_page_mapping+0xb4>
		uint16_t logical_page = _eeprom_instance.flash[c].header.logical_page;
     a9e:	7808      	ldrb	r0, [r1, #0]
     aa0:	b284      	uxth	r4, r0
		if ((logical_page != EEPROM_INVALID_PAGE_NUMBER) &&
     aa2:	2cff      	cmp	r4, #255	; 0xff
     aa4:	d0f4      	beq.n	a90 <_eeprom_emulator_update_page_mapping+0xb4>
     aa6:	42bc      	cmp	r4, r7
     aa8:	d2f2      	bcs.n	a90 <_eeprom_emulator_update_page_mapping+0xb4>
			_eeprom_instance.page_map[logical_page] = c;
     aaa:	1828      	adds	r0, r5, r0
     aac:	72c2      	strb	r2, [r0, #11]
     aae:	e7ef      	b.n	a90 <_eeprom_emulator_update_page_mapping+0xb4>
		}
	}

	/* Use an invalid page number as the spare row until a valid one has been
	 * found */
	_eeprom_instance.spare_row = EEPROM_INVALID_ROW_NUMBER;
     ab0:	203f      	movs	r0, #63	; 0x3f
     ab2:	2287      	movs	r2, #135	; 0x87
     ab4:	491a      	ldr	r1, [pc, #104]	; (b20 <_eeprom_emulator_update_page_mapping+0x144>)
     ab6:	5488      	strb	r0, [r1, r2]

	/* Scan through all physical rows, to find an erased row to use as the
	 * spare */
	for (uint16_t c = 0; c < (_eeprom_instance.physical_pages / NVMCTRL_ROW_PAGES); c++) {
     ab8:	089d      	lsrs	r5, r3, #2
     aba:	d01f      	beq.n	afc <_eeprom_emulator_update_page_mapping+0x120>

			if (physical_page == EEPROM_MASTER_PAGE_NUMBER) {
				continue;
			}

			if (_eeprom_instance.flash[physical_page].header.logical_page !=
     abc:	684c      	ldr	r4, [r1, #4]
     abe:	2104      	movs	r1, #4
     ac0:	2700      	movs	r7, #0
			if (physical_page == EEPROM_MASTER_PAGE_NUMBER) {
     ac2:	3b01      	subs	r3, #1
     ac4:	e013      	b.n	aee <_eeprom_emulator_update_page_mapping+0x112>
     ac6:	3201      	adds	r2, #1
     ac8:	b292      	uxth	r2, r2
		for (uint8_t c2 = 0; c2 < NVMCTRL_ROW_PAGES; c2++) {
     aca:	4291      	cmp	r1, r2
     acc:	d007      	beq.n	ade <_eeprom_emulator_update_page_mapping+0x102>
			if (physical_page == EEPROM_MASTER_PAGE_NUMBER) {
     ace:	429a      	cmp	r2, r3
     ad0:	d0f9      	beq.n	ac6 <_eeprom_emulator_update_page_mapping+0xea>
			if (_eeprom_instance.flash[physical_page].header.logical_page !=
     ad2:	0190      	lsls	r0, r2, #6
     ad4:	5d00      	ldrb	r0, [r0, r4]
     ad6:	28ff      	cmp	r0, #255	; 0xff
     ad8:	d0f5      	beq.n	ac6 <_eeprom_emulator_update_page_mapping+0xea>
					EEPROM_INVALID_PAGE_NUMBER) {
				spare_row_found = false;
     ada:	2600      	movs	r6, #0
     adc:	e7f3      	b.n	ac6 <_eeprom_emulator_update_page_mapping+0xea>
			}
		}

		/* If we've now found the spare row, store it and abort the search */
		if (spare_row_found == true) {
     ade:	2e00      	cmp	r6, #0
     ae0:	d109      	bne.n	af6 <_eeprom_emulator_update_page_mapping+0x11a>
	for (uint16_t c = 0; c < (_eeprom_instance.physical_pages / NVMCTRL_ROW_PAGES); c++) {
     ae2:	3701      	adds	r7, #1
     ae4:	b2bf      	uxth	r7, r7
     ae6:	3104      	adds	r1, #4
     ae8:	b289      	uxth	r1, r1
     aea:	42bd      	cmp	r5, r7
     aec:	d006      	beq.n	afc <_eeprom_emulator_update_page_mapping+0x120>
			uint16_t physical_page = (c * NVMCTRL_ROW_PAGES) + c2;
     aee:	1f0a      	subs	r2, r1, #4
     af0:	b292      	uxth	r2, r2
     af2:	2601      	movs	r6, #1
     af4:	e7eb      	b.n	ace <_eeprom_emulator_update_page_mapping+0xf2>
			_eeprom_instance.spare_row = c;
     af6:	2387      	movs	r3, #135	; 0x87
     af8:	4a09      	ldr	r2, [pc, #36]	; (b20 <_eeprom_emulator_update_page_mapping+0x144>)
     afa:	54d7      	strb	r7, [r2, r3]
			break;
		}
	}
}
     afc:	b003      	add	sp, #12
     afe:	bc3c      	pop	{r2, r3, r4, r5}
     b00:	4690      	mov	r8, r2
     b02:	4699      	mov	r9, r3
     b04:	46a2      	mov	sl, r4
     b06:	46ab      	mov	fp, r5
     b08:	bdf0      	pop	{r4, r5, r6, r7, pc}
	_eeprom_instance.spare_row = EEPROM_INVALID_ROW_NUMBER;
     b0a:	213f      	movs	r1, #63	; 0x3f
     b0c:	2387      	movs	r3, #135	; 0x87
     b0e:	4a04      	ldr	r2, [pc, #16]	; (b20 <_eeprom_emulator_update_page_mapping+0x144>)
     b10:	54d1      	strb	r1, [r2, r3]
     b12:	e7f3      	b.n	afc <_eeprom_emulator_update_page_mapping+0x120>
     b14:	213f      	movs	r1, #63	; 0x3f
     b16:	2387      	movs	r3, #135	; 0x87
     b18:	4a01      	ldr	r2, [pc, #4]	; (b20 <_eeprom_emulator_update_page_mapping+0x144>)
     b1a:	54d1      	strb	r1, [r2, r3]
     b1c:	e7ee      	b.n	afc <_eeprom_emulator_update_page_mapping+0x120>
     b1e:	46c0      	nop			; (mov r8, r8)
     b20:	20000060 	.word	0x20000060
     b24:	000009c1 	.word	0x000009c1

00000b28 <_eeprom_emulator_nvm_read_page>:
{
     b28:	b5f8      	push	{r3, r4, r5, r6, r7, lr}
     b2a:	000d      	movs	r5, r1
				(uint32_t)&_eeprom_instance.flash[physical_page],
     b2c:	0184      	lsls	r4, r0, #6
     b2e:	4f05      	ldr	r7, [pc, #20]	; (b44 <_eeprom_emulator_nvm_read_page+0x1c>)
		error_code = nvm_read_buffer(
     b30:	4e05      	ldr	r6, [pc, #20]	; (b48 <_eeprom_emulator_nvm_read_page+0x20>)
				(uint32_t)&_eeprom_instance.flash[physical_page],
     b32:	687b      	ldr	r3, [r7, #4]
     b34:	1918      	adds	r0, r3, r4
		error_code = nvm_read_buffer(
     b36:	2240      	movs	r2, #64	; 0x40
     b38:	0029      	movs	r1, r5
     b3a:	47b0      	blx	r6
	} while (error_code == STATUS_BUSY);
     b3c:	2805      	cmp	r0, #5
     b3e:	d0f8      	beq.n	b32 <_eeprom_emulator_nvm_read_page+0xa>
}
     b40:	bdf8      	pop	{r3, r4, r5, r6, r7, pc}
     b42:	46c0      	nop			; (mov r8, r8)
     b44:	20000060 	.word	0x20000060
     b48:	00000461 	.word	0x00000461

00000b4c <_eeprom_emulator_nvm_fill_cache>:
{
     b4c:	b5f8      	push	{r3, r4, r5, r6, r7, lr}
     b4e:	000d      	movs	r5, r1
				(uint32_t)&_eeprom_instance.flash[physical_page],
     b50:	0184      	lsls	r4, r0, #6
     b52:	4f05      	ldr	r7, [pc, #20]	; (b68 <_eeprom_emulator_nvm_fill_cache+0x1c>)
		error_code = nvm_write_buffer(
     b54:	4e05      	ldr	r6, [pc, #20]	; (b6c <_eeprom_emulator_nvm_fill_cache+0x20>)
				(uint32_t)&_eeprom_instance.flash[physical_page],
     b56:	687b      	ldr	r3, [r7, #4]
     b58:	1918      	adds	r0, r3, r4
		error_code = nvm_write_buffer(
     b5a:	2240      	movs	r2, #64	; 0x40
     b5c:	0029      	movs	r1, r5
     b5e:	47b0      	blx	r6
	} while (error_code == STATUS_BUSY);
     b60:	2805      	cmp	r0, #5
     b62:	d0f8      	beq.n	b56 <_eeprom_emulator_nvm_fill_cache+0xa>
}
     b64:	bdf8      	pop	{r3, r4, r5, r6, r7, pc}
     b66:	46c0      	nop			; (mov r8, r8)
     b68:	20000060 	.word	0x20000060
     b6c:	000003b9 	.word	0x000003b9

00000b70 <_eeprom_emulator_nvm_commit_cache>:
{
     b70:	b570      	push	{r4, r5, r6, lr}
				(uint32_t)&_eeprom_instance.flash[physical_page], 0);
     b72:	0184      	lsls	r4, r0, #6
     b74:	4e04      	ldr	r6, [pc, #16]	; (b88 <_eeprom_emulator_nvm_commit_cache+0x18>)
		error_code = nvm_execute_command(
     b76:	4d05      	ldr	r5, [pc, #20]	; (b8c <_eeprom_emulator_nvm_commit_cache+0x1c>)
				(uint32_t)&_eeprom_instance.flash[physical_page], 0);
     b78:	6873      	ldr	r3, [r6, #4]
     b7a:	1919      	adds	r1, r3, r4
		error_code = nvm_execute_command(
     b7c:	2200      	movs	r2, #0
     b7e:	2004      	movs	r0, #4
     b80:	47a8      	blx	r5
	} while (error_code == STATUS_BUSY);
     b82:	2805      	cmp	r0, #5
     b84:	d0f8      	beq.n	b78 <_eeprom_emulator_nvm_commit_cache+0x8>
}
     b86:	bd70      	pop	{r4, r5, r6, pc}
     b88:	20000060 	.word	0x20000060
     b8c:	00000319 	.word	0x00000319

00000b90 <eeprom_emulator_init>:
 *                                formatted
 * \retval STATUS_ERR_IO          EEPROM data is incompatible with this version
 *                                or scheme of the EEPROM emulator
 */
enum status_code eeprom_emulator_init(void)
{
     b90:	b510      	push	{r4, lr}
     b92:	b098      	sub	sp, #96	; 0x60
	config->sleep_power_mode  = NVM_SLEEP_POWER_MODE_WAKEONACCESS;
     b94:	ab16      	add	r3, sp, #88	; 0x58
     b96:	2100      	movs	r1, #0
     b98:	7019      	strb	r1, [r3, #0]
	config->manual_page_write = true;
     b9a:	2201      	movs	r2, #1
     b9c:	705a      	strb	r2, [r3, #1]
	config->wait_states       = NVMCTRL->CTRLB.bit.RWS;
     b9e:	4a2e      	ldr	r2, [pc, #184]	; (c58 <eeprom_emulator_init+0xc8>)
     ba0:	6852      	ldr	r2, [r2, #4]
     ba2:	06d2      	lsls	r2, r2, #27
     ba4:	0f12      	lsrs	r2, r2, #28
     ba6:	709a      	strb	r2, [r3, #2]
	config->disable_cache     = false;
     ba8:	70d9      	strb	r1, [r3, #3]
	config->cache_readmode    = NVM_CACHE_READMODE_NO_MISS_PENALTY;
     baa:	7119      	strb	r1, [r3, #4]
	nvm_get_config_defaults(&config);
	config.manual_page_write = true;

	/* Apply new NVM configuration */
	do {
		error_code = nvm_set_config(&config);
     bac:	4c2b      	ldr	r4, [pc, #172]	; (c5c <eeprom_emulator_init+0xcc>)
     bae:	a816      	add	r0, sp, #88	; 0x58
     bb0:	47a0      	blx	r4
	} while (error_code == STATUS_BUSY);
     bb2:	2805      	cmp	r0, #5
     bb4:	d0fb      	beq.n	bae <eeprom_emulator_init+0x1e>

	/* Get the NVM controller configuration parameters */
	nvm_get_parameters(&parameters);
     bb6:	a813      	add	r0, sp, #76	; 0x4c
     bb8:	4b29      	ldr	r3, [pc, #164]	; (c60 <eeprom_emulator_init+0xd0>)
     bba:	4798      	blx	r3

	/* Ensure the device fuses are configured for at least one master page row,
	 * one user EEPROM data row and one spare row */
	if (parameters.eeprom_number_of_pages < (3 * NVMCTRL_ROW_PAGES)) {
     bbc:	9b14      	ldr	r3, [sp, #80]	; 0x50
		return STATUS_ERR_NO_MEMORY;
     bbe:	2016      	movs	r0, #22
	if (parameters.eeprom_number_of_pages < (3 * NVMCTRL_ROW_PAGES)) {
     bc0:	2b0b      	cmp	r3, #11
     bc2:	d801      	bhi.n	bc8 <eeprom_emulator_init+0x38>

	/* Mark initialization as complete */
	_eeprom_instance.initialized = true;

	return error_code;
}
     bc4:	b018      	add	sp, #96	; 0x60
     bc6:	bd10      	pop	{r4, pc}
	_eeprom_instance.physical_pages =
     bc8:	4c26      	ldr	r4, [pc, #152]	; (c64 <eeprom_emulator_init+0xd4>)
     bca:	8123      	strh	r3, [r4, #8]
			(parameters.eeprom_number_of_pages - (2 * NVMCTRL_ROW_PAGES)) / 2;
     bcc:	001a      	movs	r2, r3
     bce:	3a08      	subs	r2, #8
     bd0:	0852      	lsrs	r2, r2, #1
	_eeprom_instance.logical_pages  =
     bd2:	72a2      	strb	r2, [r4, #10]
			(void*)(FLASH_SIZE -
     bd4:	041b      	lsls	r3, r3, #16
     bd6:	0a9b      	lsrs	r3, r3, #10
     bd8:	425b      	negs	r3, r3
     bda:	2280      	movs	r2, #128	; 0x80
     bdc:	02d2      	lsls	r2, r2, #11
     bde:	4694      	mov	ip, r2
     be0:	4463      	add	r3, ip
	_eeprom_instance.flash =
     be2:	6063      	str	r3, [r4, #4]
	_eeprom_instance.cache_active = false;
     be4:	2200      	movs	r2, #0
     be6:	23c8      	movs	r3, #200	; 0xc8
     be8:	54e2      	strb	r2, [r4, r3]
	_eeprom_emulator_update_page_mapping();
     bea:	4b1f      	ldr	r3, [pc, #124]	; (c68 <eeprom_emulator_init+0xd8>)
     bec:	4798      	blx	r3
	if (_eeprom_instance.spare_row == EEPROM_INVALID_ROW_NUMBER) {
     bee:	2387      	movs	r3, #135	; 0x87
     bf0:	5ce3      	ldrb	r3, [r4, r3]
		return STATUS_ERR_BAD_FORMAT;
     bf2:	201a      	movs	r0, #26
	if (_eeprom_instance.spare_row == EEPROM_INVALID_ROW_NUMBER) {
     bf4:	2b3f      	cmp	r3, #63	; 0x3f
     bf6:	d0e5      	beq.n	bc4 <eeprom_emulator_init+0x34>
	const uint32_t magic_key[] = EEPROM_MAGIC_KEY;
     bf8:	466a      	mov	r2, sp
     bfa:	4b1c      	ldr	r3, [pc, #112]	; (c6c <eeprom_emulator_init+0xdc>)
     bfc:	cb13      	ldmia	r3!, {r0, r1, r4}
     bfe:	c213      	stmia	r2!, {r0, r1, r4}
	_eeprom_emulator_nvm_read_page(EEPROM_MASTER_PAGE_NUMBER, &master_page);
     c00:	4b18      	ldr	r3, [pc, #96]	; (c64 <eeprom_emulator_init+0xd4>)
     c02:	8918      	ldrh	r0, [r3, #8]
     c04:	3801      	subs	r0, #1
     c06:	b280      	uxth	r0, r0
     c08:	0011      	movs	r1, r2
     c0a:	4b19      	ldr	r3, [pc, #100]	; (c70 <eeprom_emulator_init+0xe0>)
     c0c:	4798      	blx	r3
		if (master_page.magic_key[c] != magic_key[c]) {
     c0e:	9b03      	ldr	r3, [sp, #12]
     c10:	9a00      	ldr	r2, [sp, #0]
     c12:	4293      	cmp	r3, r2
     c14:	d119      	bne.n	c4a <eeprom_emulator_init+0xba>
     c16:	9b04      	ldr	r3, [sp, #16]
     c18:	9a01      	ldr	r2, [sp, #4]
     c1a:	4293      	cmp	r3, r2
     c1c:	d117      	bne.n	c4e <eeprom_emulator_init+0xbe>
     c1e:	9b05      	ldr	r3, [sp, #20]
     c20:	9a02      	ldr	r2, [sp, #8]
     c22:	4293      	cmp	r3, r2
     c24:	d115      	bne.n	c52 <eeprom_emulator_init+0xc2>
	if (master_page.emulator_id   != EEPROM_EMULATOR_ID) {
     c26:	ab03      	add	r3, sp, #12
     c28:	7bdb      	ldrb	r3, [r3, #15]
		return STATUS_ERR_IO;
     c2a:	2010      	movs	r0, #16
	if (master_page.emulator_id   != EEPROM_EMULATOR_ID) {
     c2c:	2b01      	cmp	r3, #1
     c2e:	d1c9      	bne.n	bc4 <eeprom_emulator_init+0x34>
	if (master_page.major_version != EEPROM_MAJOR_VERSION) {
     c30:	ab03      	add	r3, sp, #12
     c32:	7b1b      	ldrb	r3, [r3, #12]
     c34:	2b01      	cmp	r3, #1
     c36:	d1c5      	bne.n	bc4 <eeprom_emulator_init+0x34>
	if (master_page.minor_version != EEPROM_MINOR_VERSION) {
     c38:	ab03      	add	r3, sp, #12
     c3a:	7b5b      	ldrb	r3, [r3, #13]
     c3c:	2b00      	cmp	r3, #0
     c3e:	d1c1      	bne.n	bc4 <eeprom_emulator_init+0x34>
	_eeprom_instance.initialized = true;
     c40:	2201      	movs	r2, #1
     c42:	4b08      	ldr	r3, [pc, #32]	; (c64 <eeprom_emulator_init+0xd4>)
     c44:	701a      	strb	r2, [r3, #0]
	return error_code;
     c46:	2000      	movs	r0, #0
     c48:	e7bc      	b.n	bc4 <eeprom_emulator_init+0x34>
			return STATUS_ERR_BAD_FORMAT;
     c4a:	201a      	movs	r0, #26
     c4c:	e7ba      	b.n	bc4 <eeprom_emulator_init+0x34>
     c4e:	201a      	movs	r0, #26
     c50:	e7b8      	b.n	bc4 <eeprom_emulator_init+0x34>
     c52:	201a      	movs	r0, #26
     c54:	e7b6      	b.n	bc4 <eeprom_emulator_init+0x34>
     c56:	46c0      	nop			; (mov r8, r8)
     c58:	41004000 	.word	0x41004000
     c5c:	00000291 	.word	0x00000291
     c60:	00000529 	.word	0x00000529
     c64:	20000060 	.word	0x20000060
     c68:	000009dd 	.word	0x000009dd
     c6c:	00001304 	.word	0x00001304
     c70:	00000b29 	.word	0x00000b29

00000c74 <eeprom_emulator_erase_memory>:
 *
 * Erases and re-initializes the emulated EEPROM memory space, destroying any
 * existing data.
 */
void eeprom_emulator_erase_memory(void)
{
     c74:	b570      	push	{r4, r5, r6, lr}
     c76:	b094      	sub	sp, #80	; 0x50
	_eeprom_instance.spare_row = 0;
     c78:	4c2f      	ldr	r4, [pc, #188]	; (d38 <eeprom_emulator_erase_memory+0xc4>)
     c7a:	2200      	movs	r2, #0
     c7c:	2387      	movs	r3, #135	; 0x87
     c7e:	54e2      	strb	r2, [r4, r3]
	_eeprom_emulator_nvm_erase_row(_eeprom_instance.spare_row);
     c80:	2000      	movs	r0, #0
     c82:	4b2e      	ldr	r3, [pc, #184]	; (d3c <eeprom_emulator_erase_memory+0xc8>)
     c84:	4798      	blx	r3
			physical_page < _eeprom_instance.physical_pages; physical_page++) {
     c86:	8925      	ldrh	r5, [r4, #8]
	for (uint16_t physical_page = NVMCTRL_ROW_PAGES;
     c88:	2d04      	cmp	r5, #4
     c8a:	d925      	bls.n	cd8 <eeprom_emulator_erase_memory+0x64>
     c8c:	2600      	movs	r6, #0
     c8e:	2404      	movs	r4, #4
     c90:	e019      	b.n	cc6 <eeprom_emulator_erase_memory+0x52>
			_eeprom_emulator_nvm_erase_row(physical_page / NVMCTRL_ROW_PAGES);
     c92:	08a0      	lsrs	r0, r4, #2
     c94:	b2c0      	uxtb	r0, r0
     c96:	4b29      	ldr	r3, [pc, #164]	; (d3c <eeprom_emulator_erase_memory+0xc8>)
     c98:	4798      	blx	r3
			memset(&data, 0xFF, sizeof(data));
     c9a:	ad04      	add	r5, sp, #16
     c9c:	2240      	movs	r2, #64	; 0x40
     c9e:	21ff      	movs	r1, #255	; 0xff
     ca0:	0028      	movs	r0, r5
     ca2:	4b27      	ldr	r3, [pc, #156]	; (d40 <eeprom_emulator_erase_memory+0xcc>)
     ca4:	4798      	blx	r3
			data.header.logical_page = logical_page;
     ca6:	702e      	strb	r6, [r5, #0]
			_eeprom_emulator_nvm_fill_cache(physical_page, &data);
     ca8:	0029      	movs	r1, r5
     caa:	0020      	movs	r0, r4
     cac:	4b25      	ldr	r3, [pc, #148]	; (d44 <eeprom_emulator_erase_memory+0xd0>)
     cae:	4798      	blx	r3
			_eeprom_emulator_nvm_commit_cache(physical_page);
     cb0:	0020      	movs	r0, r4
     cb2:	4b25      	ldr	r3, [pc, #148]	; (d48 <eeprom_emulator_erase_memory+0xd4>)
     cb4:	4798      	blx	r3
			logical_page++;
     cb6:	3601      	adds	r6, #1
     cb8:	b2b6      	uxth	r6, r6
			physical_page < _eeprom_instance.physical_pages; physical_page++) {
     cba:	3401      	adds	r4, #1
     cbc:	b2a4      	uxth	r4, r4
     cbe:	4b1e      	ldr	r3, [pc, #120]	; (d38 <eeprom_emulator_erase_memory+0xc4>)
     cc0:	891d      	ldrh	r5, [r3, #8]
	for (uint16_t physical_page = NVMCTRL_ROW_PAGES;
     cc2:	42a5      	cmp	r5, r4
     cc4:	d908      	bls.n	cd8 <eeprom_emulator_erase_memory+0x64>
		if (physical_page == EEPROM_MASTER_PAGE_NUMBER) {
     cc6:	3d01      	subs	r5, #1
     cc8:	42ac      	cmp	r4, r5
     cca:	d0f6      	beq.n	cba <eeprom_emulator_erase_memory+0x46>
		if ((physical_page % NVMCTRL_ROW_PAGES) == 0) {
     ccc:	2303      	movs	r3, #3
     cce:	4023      	ands	r3, r4
     cd0:	d0df      	beq.n	c92 <eeprom_emulator_erase_memory+0x1e>
		if ((physical_page % NVMCTRL_ROW_PAGES) < 2) {
     cd2:	2b01      	cmp	r3, #1
     cd4:	d8f1      	bhi.n	cba <eeprom_emulator_erase_memory+0x46>
     cd6:	e7e0      	b.n	c9a <eeprom_emulator_erase_memory+0x26>
	const uint32_t magic_key[] = EEPROM_MAGIC_KEY;
     cd8:	ae01      	add	r6, sp, #4
     cda:	4b1c      	ldr	r3, [pc, #112]	; (d4c <eeprom_emulator_erase_memory+0xd8>)
     cdc:	0032      	movs	r2, r6
     cde:	cb13      	ldmia	r3!, {r0, r1, r4}
     ce0:	c213      	stmia	r2!, {r0, r1, r4}
	memset(&master_page, 0xFF, sizeof(master_page));
     ce2:	ac04      	add	r4, sp, #16
     ce4:	2240      	movs	r2, #64	; 0x40
     ce6:	21ff      	movs	r1, #255	; 0xff
     ce8:	0020      	movs	r0, r4
     cea:	4b15      	ldr	r3, [pc, #84]	; (d40 <eeprom_emulator_erase_memory+0xcc>)
     cec:	4798      	blx	r3
		master_page.magic_key[c] = magic_key[c];
     cee:	9b01      	ldr	r3, [sp, #4]
     cf0:	9304      	str	r3, [sp, #16]
     cf2:	6873      	ldr	r3, [r6, #4]
     cf4:	6063      	str	r3, [r4, #4]
     cf6:	68b3      	ldr	r3, [r6, #8]
     cf8:	60a3      	str	r3, [r4, #8]
	master_page.emulator_id   = EEPROM_EMULATOR_ID;
     cfa:	2301      	movs	r3, #1
     cfc:	73e3      	strb	r3, [r4, #15]
	master_page.major_version = EEPROM_MAJOR_VERSION;
     cfe:	7323      	strb	r3, [r4, #12]
	master_page.minor_version = EEPROM_MINOR_VERSION;
     d00:	2300      	movs	r3, #0
     d02:	7363      	strb	r3, [r4, #13]
	master_page.revision      = EEPROM_REVISION;
     d04:	73a3      	strb	r3, [r4, #14]
			EEPROM_MASTER_PAGE_NUMBER / NVMCTRL_ROW_PAGES);
     d06:	3d01      	subs	r5, #1
     d08:	17eb      	asrs	r3, r5, #31
     d0a:	2003      	movs	r0, #3
     d0c:	4018      	ands	r0, r3
     d0e:	1945      	adds	r5, r0, r5
     d10:	10ad      	asrs	r5, r5, #2
	_eeprom_emulator_nvm_erase_row(
     d12:	b2e8      	uxtb	r0, r5
     d14:	4b09      	ldr	r3, [pc, #36]	; (d3c <eeprom_emulator_erase_memory+0xc8>)
     d16:	4798      	blx	r3
	_eeprom_emulator_nvm_fill_cache(EEPROM_MASTER_PAGE_NUMBER, &master_page);
     d18:	4d07      	ldr	r5, [pc, #28]	; (d38 <eeprom_emulator_erase_memory+0xc4>)
     d1a:	8928      	ldrh	r0, [r5, #8]
     d1c:	3801      	subs	r0, #1
     d1e:	b280      	uxth	r0, r0
     d20:	0021      	movs	r1, r4
     d22:	4b08      	ldr	r3, [pc, #32]	; (d44 <eeprom_emulator_erase_memory+0xd0>)
     d24:	4798      	blx	r3
	_eeprom_emulator_nvm_commit_cache(EEPROM_MASTER_PAGE_NUMBER);
     d26:	8928      	ldrh	r0, [r5, #8]
     d28:	3801      	subs	r0, #1
     d2a:	b280      	uxth	r0, r0
     d2c:	4b06      	ldr	r3, [pc, #24]	; (d48 <eeprom_emulator_erase_memory+0xd4>)
     d2e:	4798      	blx	r3

	/* Write EEPROM emulation master block */
	_eeprom_emulator_create_master_page();

	/* Map the newly created EEPROM memory block */
	_eeprom_emulator_update_page_mapping();
     d30:	4b07      	ldr	r3, [pc, #28]	; (d50 <eeprom_emulator_erase_memory+0xdc>)
     d32:	4798      	blx	r3
}
     d34:	b014      	add	sp, #80	; 0x50
     d36:	bd70      	pop	{r4, r5, r6, pc}
     d38:	20000060 	.word	0x20000060
     d3c:	000009c1 	.word	0x000009c1
     d40:	000011b7 	.word	0x000011b7
     d44:	00000b4d 	.word	0x00000b4d
     d48:	00000b71 	.word	0x00000b71
     d4c:	00001304 	.word	0x00001304
     d50:	000009dd 	.word	0x000009dd

00000d54 <eeprom_emulator_read_page>:
 *                                      EEPROM memory space was supplied
 */
enum status_code eeprom_emulator_read_page(
		const uint8_t logical_page,
		uint8_t *const data)
{
     d54:	b510      	push	{r4, lr}
     d56:	b090      	sub	sp, #64	; 0x40
     d58:	000c      	movs	r4, r1
	/* Ensure the emulated EEPROM has been initialized first */
	if (_eeprom_instance.initialized == false) {
     d5a:	4b15      	ldr	r3, [pc, #84]	; (db0 <eeprom_emulator_read_page+0x5c>)
     d5c:	781a      	ldrb	r2, [r3, #0]
		return STATUS_ERR_NOT_INITIALIZED;
     d5e:	231f      	movs	r3, #31
	if (_eeprom_instance.initialized == false) {
     d60:	2a00      	cmp	r2, #0
     d62:	d102      	bne.n	d6a <eeprom_emulator_read_page+0x16>
		/* Copy the data portion of the read page to the user's buffer */
		memcpy(data, temp.data, EEPROM_PAGE_SIZE);
	}

	return STATUS_OK;
}
     d64:	0018      	movs	r0, r3
     d66:	b010      	add	sp, #64	; 0x40
     d68:	bd10      	pop	{r4, pc}
	if (logical_page >= _eeprom_instance.logical_pages) {
     d6a:	4b11      	ldr	r3, [pc, #68]	; (db0 <eeprom_emulator_read_page+0x5c>)
     d6c:	7a9a      	ldrb	r2, [r3, #10]
		return STATUS_ERR_BAD_ADDRESS;
     d6e:	2318      	movs	r3, #24
	if (logical_page >= _eeprom_instance.logical_pages) {
     d70:	4282      	cmp	r2, r0
     d72:	d9f7      	bls.n	d64 <eeprom_emulator_read_page+0x10>
	if ((_eeprom_instance.cache_active == true) &&
     d74:	33b0      	adds	r3, #176	; 0xb0
     d76:	4a0e      	ldr	r2, [pc, #56]	; (db0 <eeprom_emulator_read_page+0x5c>)
     d78:	5cd3      	ldrb	r3, [r2, r3]
     d7a:	2b00      	cmp	r3, #0
     d7c:	d003      	beq.n	d86 <eeprom_emulator_read_page+0x32>
		 (_eeprom_instance.cache.header.logical_page == logical_page)) {
     d7e:	2388      	movs	r3, #136	; 0x88
	if ((_eeprom_instance.cache_active == true) &&
     d80:	5cd3      	ldrb	r3, [r2, r3]
     d82:	4283      	cmp	r3, r0
     d84:	d00c      	beq.n	da0 <eeprom_emulator_read_page+0x4c>
				_eeprom_instance.page_map[logical_page], &temp);
     d86:	4b0a      	ldr	r3, [pc, #40]	; (db0 <eeprom_emulator_read_page+0x5c>)
     d88:	1818      	adds	r0, r3, r0
		_eeprom_emulator_nvm_read_page(
     d8a:	7ac0      	ldrb	r0, [r0, #11]
     d8c:	4669      	mov	r1, sp
     d8e:	4b09      	ldr	r3, [pc, #36]	; (db4 <eeprom_emulator_read_page+0x60>)
     d90:	4798      	blx	r3
		memcpy(data, temp.data, EEPROM_PAGE_SIZE);
     d92:	223c      	movs	r2, #60	; 0x3c
     d94:	a901      	add	r1, sp, #4
     d96:	0020      	movs	r0, r4
     d98:	4b07      	ldr	r3, [pc, #28]	; (db8 <eeprom_emulator_read_page+0x64>)
     d9a:	4798      	blx	r3
	return STATUS_OK;
     d9c:	2300      	movs	r3, #0
     d9e:	e7e1      	b.n	d64 <eeprom_emulator_read_page+0x10>
		memcpy(data, _eeprom_instance.cache.data, EEPROM_PAGE_SIZE);
     da0:	223c      	movs	r2, #60	; 0x3c
     da2:	4903      	ldr	r1, [pc, #12]	; (db0 <eeprom_emulator_read_page+0x5c>)
     da4:	318c      	adds	r1, #140	; 0x8c
     da6:	0020      	movs	r0, r4
     da8:	4b03      	ldr	r3, [pc, #12]	; (db8 <eeprom_emulator_read_page+0x64>)
     daa:	4798      	blx	r3
	return STATUS_OK;
     dac:	2300      	movs	r3, #0
		memcpy(data, _eeprom_instance.cache.data, EEPROM_PAGE_SIZE);
     dae:	e7d9      	b.n	d64 <eeprom_emulator_read_page+0x10>
     db0:	20000060 	.word	0x20000060
     db4:	00000b29 	.word	0x00000b29
     db8:	000011a5 	.word	0x000011a5

00000dbc <eeprom_emulator_commit_page_buffer>:
 *       data loss.
 *
 * \return Status code indicating the status of the operation.
 */
enum status_code eeprom_emulator_commit_page_buffer(void)
{
     dbc:	b510      	push	{r4, lr}
	enum status_code error_code = STATUS_OK;

	/* If cache is inactive, no need to commit anything to physical memory */
	if (_eeprom_instance.cache_active == false) {
     dbe:	23c8      	movs	r3, #200	; 0xc8
     dc0:	4a08      	ldr	r2, [pc, #32]	; (de4 <eeprom_emulator_commit_page_buffer+0x28>)
     dc2:	5cd3      	ldrb	r3, [r2, r3]
     dc4:	2b00      	cmp	r3, #0
     dc6:	d101      	bne.n	dcc <eeprom_emulator_commit_page_buffer+0x10>

	barrier(); // Enforce ordering to prevent incorrect cache state
	_eeprom_instance.cache_active = false;

	return error_code;
}
     dc8:	2000      	movs	r0, #0
     dca:	bd10      	pop	{r4, pc}
			_eeprom_instance.page_map[cached_logical_page]);
     dcc:	0014      	movs	r4, r2
	uint8_t cached_logical_page = _eeprom_instance.cache.header.logical_page;
     dce:	2388      	movs	r3, #136	; 0x88
			_eeprom_instance.page_map[cached_logical_page]);
     dd0:	5cd3      	ldrb	r3, [r2, r3]
     dd2:	18d3      	adds	r3, r2, r3
	_eeprom_emulator_nvm_commit_cache(
     dd4:	7ad8      	ldrb	r0, [r3, #11]
     dd6:	4b04      	ldr	r3, [pc, #16]	; (de8 <eeprom_emulator_commit_page_buffer+0x2c>)
     dd8:	4798      	blx	r3
	_eeprom_instance.cache_active = false;
     dda:	2200      	movs	r2, #0
     ddc:	23c8      	movs	r3, #200	; 0xc8
     dde:	54e2      	strb	r2, [r4, r3]
	return error_code;
     de0:	e7f2      	b.n	dc8 <eeprom_emulator_commit_page_buffer+0xc>
     de2:	46c0      	nop			; (mov r8, r8)
     de4:	20000060 	.word	0x20000060
     de8:	00000b71 	.word	0x00000b71

00000dec <eeprom_emulator_write_page>:
{
     dec:	b5f0      	push	{r4, r5, r6, r7, lr}
     dee:	46de      	mov	lr, fp
     df0:	4657      	mov	r7, sl
     df2:	464e      	mov	r6, r9
     df4:	4645      	mov	r5, r8
     df6:	b5e0      	push	{r5, r6, r7, lr}
     df8:	b087      	sub	sp, #28
     dfa:	0004      	movs	r4, r0
     dfc:	9100      	str	r1, [sp, #0]
	if (_eeprom_instance.initialized == false) {
     dfe:	4b5a      	ldr	r3, [pc, #360]	; (f68 <eeprom_emulator_write_page+0x17c>)
     e00:	781b      	ldrb	r3, [r3, #0]
		return STATUS_ERR_NOT_INITIALIZED;
     e02:	201f      	movs	r0, #31
	if (_eeprom_instance.initialized == false) {
     e04:	2b00      	cmp	r3, #0
     e06:	d106      	bne.n	e16 <eeprom_emulator_write_page+0x2a>
}
     e08:	b007      	add	sp, #28
     e0a:	bc3c      	pop	{r2, r3, r4, r5}
     e0c:	4690      	mov	r8, r2
     e0e:	4699      	mov	r9, r3
     e10:	46a2      	mov	sl, r4
     e12:	46ab      	mov	fp, r5
     e14:	bdf0      	pop	{r4, r5, r6, r7, pc}
	if (logical_page >= _eeprom_instance.logical_pages) {
     e16:	4b54      	ldr	r3, [pc, #336]	; (f68 <eeprom_emulator_write_page+0x17c>)
     e18:	7a9b      	ldrb	r3, [r3, #10]
		return STATUS_ERR_BAD_ADDRESS;
     e1a:	3807      	subs	r0, #7
	if (logical_page >= _eeprom_instance.logical_pages) {
     e1c:	42a3      	cmp	r3, r4
     e1e:	d9f3      	bls.n	e08 <eeprom_emulator_write_page+0x1c>
	if ((_eeprom_instance.cache_active == true) &&
     e20:	23c8      	movs	r3, #200	; 0xc8
     e22:	4a51      	ldr	r2, [pc, #324]	; (f68 <eeprom_emulator_write_page+0x17c>)
     e24:	5cd3      	ldrb	r3, [r2, r3]
     e26:	2b00      	cmp	r3, #0
     e28:	d005      	beq.n	e36 <eeprom_emulator_write_page+0x4a>
			(_eeprom_instance.cache.header.logical_page != logical_page)) {
     e2a:	2388      	movs	r3, #136	; 0x88
	if ((_eeprom_instance.cache_active == true) &&
     e2c:	5cd3      	ldrb	r3, [r2, r3]
     e2e:	42a3      	cmp	r3, r4
     e30:	d001      	beq.n	e36 <eeprom_emulator_write_page+0x4a>
		eeprom_emulator_commit_page_buffer();
     e32:	4b4e      	ldr	r3, [pc, #312]	; (f6c <eeprom_emulator_write_page+0x180>)
     e34:	4798      	blx	r3
	bool page_spare  = _eeprom_emulator_is_page_free_on_row(
     e36:	4b4c      	ldr	r3, [pc, #304]	; (f68 <eeprom_emulator_write_page+0x17c>)
     e38:	191b      	adds	r3, r3, r4
     e3a:	7ade      	ldrb	r6, [r3, #11]
		uint8_t page = (row * NVMCTRL_ROW_PAGES) + c;
     e3c:	2303      	movs	r3, #3
     e3e:	0031      	movs	r1, r6
     e40:	4399      	bics	r1, r3
		if (_eeprom_instance.flash[page].header.logical_page ==
     e42:	4b49      	ldr	r3, [pc, #292]	; (f68 <eeprom_emulator_write_page+0x17c>)
     e44:	6858      	ldr	r0, [r3, #4]
     e46:	01b3      	lsls	r3, r6, #6
     e48:	5c1b      	ldrb	r3, [r3, r0]
     e4a:	2bff      	cmp	r3, #255	; 0xff
     e4c:	d047      	beq.n	ede <eeprom_emulator_write_page+0xf2>
     e4e:	1c75      	adds	r5, r6, #1
     e50:	b2ed      	uxtb	r5, r5
     e52:	3104      	adds	r1, #4
     e54:	b2c9      	uxtb	r1, r1
	for (uint8_t c = page_in_row; c < NVMCTRL_ROW_PAGES; c++) {
     e56:	42a9      	cmp	r1, r5
     e58:	d057      	beq.n	f0a <eeprom_emulator_write_page+0x11e>
     e5a:	1c6b      	adds	r3, r5, #1
     e5c:	b2db      	uxtb	r3, r3
		if (_eeprom_instance.flash[page].header.logical_page ==
     e5e:	01aa      	lsls	r2, r5, #6
     e60:	5c12      	ldrb	r2, [r2, r0]
     e62:	2aff      	cmp	r2, #255	; 0xff
     e64:	d03c      	beq.n	ee0 <eeprom_emulator_write_page+0xf4>
     e66:	001d      	movs	r5, r3
     e68:	e7f5      	b.n	e56 <eeprom_emulator_write_page+0x6a>
				page_trans[c].physical_page =
     e6a:	aa05      	add	r2, sp, #20
     e6c:	18d2      	adds	r2, r2, r3
     e6e:	7056      	strb	r6, [r2, #1]
     e70:	e069      	b.n	f46 <eeprom_emulator_write_page+0x15a>
     e72:	af05      	add	r7, sp, #20
     e74:	18ff      	adds	r7, r7, r3
     e76:	707d      	strb	r5, [r7, #1]
     e78:	e063      	b.n	f42 <eeprom_emulator_write_page+0x156>
			_eeprom_emulator_nvm_read_page(
     e7a:	7870      	ldrb	r0, [r6, #1]
     e7c:	9902      	ldr	r1, [sp, #8]
     e7e:	4b3c      	ldr	r3, [pc, #240]	; (f70 <eeprom_emulator_write_page+0x184>)
     e80:	4798      	blx	r3
		_eeprom_emulator_nvm_fill_cache(new_page, &_eeprom_instance.cache);
     e82:	4c39      	ldr	r4, [pc, #228]	; (f68 <eeprom_emulator_write_page+0x17c>)
     e84:	0021      	movs	r1, r4
     e86:	3188      	adds	r1, #136	; 0x88
     e88:	b2a8      	uxth	r0, r5
     e8a:	4b3a      	ldr	r3, [pc, #232]	; (f74 <eeprom_emulator_write_page+0x188>)
     e8c:	4798      	blx	r3
		_eeprom_instance.page_map[page_trans[c].logical_page] = new_page;
     e8e:	464b      	mov	r3, r9
     e90:	781b      	ldrb	r3, [r3, #0]
     e92:	18e3      	adds	r3, r4, r3
     e94:	72dd      	strb	r5, [r3, #11]
		_eeprom_instance.cache_active = true;
     e96:	2201      	movs	r2, #1
     e98:	23c8      	movs	r3, #200	; 0xc8
     e9a:	54e2      	strb	r2, [r4, r3]
     e9c:	3701      	adds	r7, #1
     e9e:	3602      	adds	r6, #2
	for (uint8_t c = 0; c < 2; c++) {
     ea0:	2f02      	cmp	r7, #2
     ea2:	d013      	beq.n	ecc <eeprom_emulator_write_page+0xe0>
				((_eeprom_instance.spare_row * NVMCTRL_ROW_PAGES) + c);
     ea4:	2387      	movs	r3, #135	; 0x87
     ea6:	465a      	mov	r2, fp
     ea8:	5cd5      	ldrb	r5, [r2, r3]
     eaa:	00ad      	lsls	r5, r5, #2
     eac:	19ed      	adds	r5, r5, r7
		eeprom_emulator_commit_page_buffer();
     eae:	47d0      	blx	sl
     eb0:	46b1      	mov	r9, r6
		if (logical_page == page_trans[c].logical_page) {
     eb2:	7833      	ldrb	r3, [r6, #0]
     eb4:	9901      	ldr	r1, [sp, #4]
     eb6:	428b      	cmp	r3, r1
     eb8:	d1df      	bne.n	e7a <eeprom_emulator_write_page+0x8e>
			_eeprom_instance.cache.header.logical_page = logical_page;
     eba:	2388      	movs	r3, #136	; 0x88
     ebc:	4a2a      	ldr	r2, [pc, #168]	; (f68 <eeprom_emulator_write_page+0x17c>)
     ebe:	54d1      	strb	r1, [r2, r3]
			memcpy(_eeprom_instance.cache.data, data, EEPROM_PAGE_SIZE);
     ec0:	223c      	movs	r2, #60	; 0x3c
     ec2:	9900      	ldr	r1, [sp, #0]
     ec4:	9803      	ldr	r0, [sp, #12]
     ec6:	4b2c      	ldr	r3, [pc, #176]	; (f78 <eeprom_emulator_write_page+0x18c>)
     ec8:	4798      	blx	r3
     eca:	e7da      	b.n	e82 <eeprom_emulator_write_page+0x96>
	_eeprom_emulator_nvm_erase_row(row_number);
     ecc:	4644      	mov	r4, r8
     ece:	4640      	mov	r0, r8
     ed0:	4b2a      	ldr	r3, [pc, #168]	; (f7c <eeprom_emulator_write_page+0x190>)
     ed2:	4798      	blx	r3
	_eeprom_instance.spare_row = row_number;
     ed4:	2387      	movs	r3, #135	; 0x87
     ed6:	4a24      	ldr	r2, [pc, #144]	; (f68 <eeprom_emulator_write_page+0x17c>)
     ed8:	54d4      	strb	r4, [r2, r3]
		return STATUS_OK;
     eda:	2000      	movs	r0, #0
     edc:	e794      	b.n	e08 <eeprom_emulator_write_page+0x1c>
		uint8_t page = (row * NVMCTRL_ROW_PAGES) + c;
     ede:	0035      	movs	r5, r6
	_eeprom_instance.cache.header.logical_page = logical_page;
     ee0:	4e21      	ldr	r6, [pc, #132]	; (f68 <eeprom_emulator_write_page+0x17c>)
     ee2:	2388      	movs	r3, #136	; 0x88
     ee4:	54f4      	strb	r4, [r6, r3]
	memcpy(&_eeprom_instance.cache.data,
     ee6:	0030      	movs	r0, r6
     ee8:	308c      	adds	r0, #140	; 0x8c
     eea:	223c      	movs	r2, #60	; 0x3c
     eec:	9900      	ldr	r1, [sp, #0]
     eee:	4b22      	ldr	r3, [pc, #136]	; (f78 <eeprom_emulator_write_page+0x18c>)
     ef0:	4798      	blx	r3
	_eeprom_emulator_nvm_fill_cache(new_page, &_eeprom_instance.cache);
     ef2:	0031      	movs	r1, r6
     ef4:	3188      	adds	r1, #136	; 0x88
     ef6:	b2a8      	uxth	r0, r5
     ef8:	4b1e      	ldr	r3, [pc, #120]	; (f74 <eeprom_emulator_write_page+0x188>)
     efa:	4798      	blx	r3
	_eeprom_instance.page_map[logical_page] = new_page;
     efc:	1934      	adds	r4, r6, r4
     efe:	72e5      	strb	r5, [r4, #11]
	_eeprom_instance.cache_active           = true;
     f00:	2201      	movs	r2, #1
     f02:	23c8      	movs	r3, #200	; 0xc8
     f04:	54f2      	strb	r2, [r6, r3]
	return STATUS_OK;
     f06:	2000      	movs	r0, #0
     f08:	e77e      	b.n	e08 <eeprom_emulator_write_page+0x1c>
		_eeprom_emulator_move_data_to_spare(
     f0a:	08b3      	lsrs	r3, r6, #2
     f0c:	4698      	mov	r8, r3
			(struct _eeprom_page *)&_eeprom_instance.flash[row_number * NVMCTRL_ROW_PAGES];
     f0e:	021b      	lsls	r3, r3, #8
	const struct _eeprom_page *row_data =
     f10:	4a15      	ldr	r2, [pc, #84]	; (f68 <eeprom_emulator_write_page+0x17c>)
     f12:	6852      	ldr	r2, [r2, #4]
     f14:	18d3      	adds	r3, r2, r3
	page_trans[0].logical_page  = row_data[0].header.logical_page;
     f16:	aa05      	add	r2, sp, #20
     f18:	7819      	ldrb	r1, [r3, #0]
     f1a:	7011      	strb	r1, [r2, #0]
	page_trans[0].physical_page = (row_number * NVMCTRL_ROW_PAGES);
     f1c:	2103      	movs	r1, #3
     f1e:	438e      	bics	r6, r1
     f20:	7056      	strb	r6, [r2, #1]
	page_trans[1].logical_page  = row_data[1].header.logical_page;
     f22:	313d      	adds	r1, #61	; 0x3d
     f24:	5c59      	ldrb	r1, [r3, r1]
     f26:	7091      	strb	r1, [r2, #2]
	page_trans[1].physical_page = (row_number * NVMCTRL_ROW_PAGES) + 1;
     f28:	1c71      	adds	r1, r6, #1
     f2a:	70d1      	strb	r1, [r2, #3]
			if (page_trans[c].logical_page == row_data[c2].header.logical_page) {
     f2c:	2280      	movs	r2, #128	; 0x80
     f2e:	5c98      	ldrb	r0, [r3, r2]
     f30:	3240      	adds	r2, #64	; 0x40
     f32:	5c99      	ldrb	r1, [r3, r2]
     f34:	2300      	movs	r3, #0
						(row_number * NVMCTRL_ROW_PAGES) + c2;
     f36:	1cb5      	adds	r5, r6, #2
     f38:	3603      	adds	r6, #3
			if (page_trans[c].logical_page == row_data[c2].header.logical_page) {
     f3a:	aa05      	add	r2, sp, #20
     f3c:	5cd2      	ldrb	r2, [r2, r3]
     f3e:	4290      	cmp	r0, r2
     f40:	d097      	beq.n	e72 <eeprom_emulator_write_page+0x86>
     f42:	428a      	cmp	r2, r1
     f44:	d091      	beq.n	e6a <eeprom_emulator_write_page+0x7e>
     f46:	3302      	adds	r3, #2
	for (uint8_t c = 0; c < 2; c++) {
     f48:	2b04      	cmp	r3, #4
     f4a:	d1f6      	bne.n	f3a <eeprom_emulator_write_page+0x14e>
     f4c:	ae05      	add	r6, sp, #20
     f4e:	2700      	movs	r7, #0
				((_eeprom_instance.spare_row * NVMCTRL_ROW_PAGES) + c);
     f50:	4b05      	ldr	r3, [pc, #20]	; (f68 <eeprom_emulator_write_page+0x17c>)
     f52:	469b      	mov	fp, r3
		eeprom_emulator_commit_page_buffer();
     f54:	4b05      	ldr	r3, [pc, #20]	; (f6c <eeprom_emulator_write_page+0x180>)
     f56:	469a      	mov	sl, r3
			_eeprom_emulator_nvm_read_page(
     f58:	465b      	mov	r3, fp
     f5a:	3388      	adds	r3, #136	; 0x88
     f5c:	9302      	str	r3, [sp, #8]
			memcpy(_eeprom_instance.cache.data, data, EEPROM_PAGE_SIZE);
     f5e:	3304      	adds	r3, #4
     f60:	9303      	str	r3, [sp, #12]
     f62:	9401      	str	r4, [sp, #4]
     f64:	e79e      	b.n	ea4 <eeprom_emulator_write_page+0xb8>
     f66:	46c0      	nop			; (mov r8, r8)
     f68:	20000060 	.word	0x20000060
     f6c:	00000dbd 	.word	0x00000dbd
     f70:	00000b29 	.word	0x00000b29
     f74:	00000b4d 	.word	0x00000b4d
     f78:	000011a5 	.word	0x000011a5
     f7c:	000009c1 	.word	0x000009c1

00000f80 <Dummy_Handler>:

/**
 * \brief Default interrupt handler for unused IRQs.
 */
void Dummy_Handler(void)
{
     f80:	e7fe      	b.n	f80 <Dummy_Handler>
	...

00000f84 <Reset_Handler>:
{
     f84:	b5f8      	push	{r3, r4, r5, r6, r7, lr}
        if (pSrc != pDest) {
     f86:	4a2a      	ldr	r2, [pc, #168]	; (1030 <Reset_Handler+0xac>)
     f88:	4b2a      	ldr	r3, [pc, #168]	; (1034 <Reset_Handler+0xb0>)
     f8a:	429a      	cmp	r2, r3
     f8c:	d011      	beq.n	fb2 <Reset_Handler+0x2e>
                for (; pDest < &_erelocate;) {
     f8e:	001a      	movs	r2, r3
     f90:	4b29      	ldr	r3, [pc, #164]	; (1038 <Reset_Handler+0xb4>)
     f92:	429a      	cmp	r2, r3
     f94:	d20d      	bcs.n	fb2 <Reset_Handler+0x2e>
     f96:	4a29      	ldr	r2, [pc, #164]	; (103c <Reset_Handler+0xb8>)
     f98:	3303      	adds	r3, #3
     f9a:	1a9b      	subs	r3, r3, r2
     f9c:	089b      	lsrs	r3, r3, #2
     f9e:	3301      	adds	r3, #1
     fa0:	009b      	lsls	r3, r3, #2
     fa2:	2200      	movs	r2, #0
                        *pDest++ = *pSrc++;
     fa4:	4823      	ldr	r0, [pc, #140]	; (1034 <Reset_Handler+0xb0>)
     fa6:	4922      	ldr	r1, [pc, #136]	; (1030 <Reset_Handler+0xac>)
     fa8:	588c      	ldr	r4, [r1, r2]
     faa:	5084      	str	r4, [r0, r2]
     fac:	3204      	adds	r2, #4
                for (; pDest < &_erelocate;) {
     fae:	429a      	cmp	r2, r3
     fb0:	d1fa      	bne.n	fa8 <Reset_Handler+0x24>
        for (pDest = &_szero; pDest < &_ezero;) {
     fb2:	4a23      	ldr	r2, [pc, #140]	; (1040 <Reset_Handler+0xbc>)
     fb4:	4b23      	ldr	r3, [pc, #140]	; (1044 <Reset_Handler+0xc0>)
     fb6:	429a      	cmp	r2, r3
     fb8:	d20a      	bcs.n	fd0 <Reset_Handler+0x4c>
     fba:	43d3      	mvns	r3, r2
     fbc:	4921      	ldr	r1, [pc, #132]	; (1044 <Reset_Handler+0xc0>)
     fbe:	185b      	adds	r3, r3, r1
     fc0:	2103      	movs	r1, #3
     fc2:	438b      	bics	r3, r1
     fc4:	3304      	adds	r3, #4
     fc6:	189b      	adds	r3, r3, r2
                *pDest++ = 0;
     fc8:	2100      	movs	r1, #0
     fca:	c202      	stmia	r2!, {r1}
        for (pDest = &_szero; pDest < &_ezero;) {
     fcc:	4293      	cmp	r3, r2
     fce:	d1fc      	bne.n	fca <Reset_Handler+0x46>
        SCB->VTOR = ((uint32_t) pSrc & SCB_VTOR_TBLOFF_Msk);
     fd0:	4a1d      	ldr	r2, [pc, #116]	; (1048 <Reset_Handler+0xc4>)
     fd2:	21ff      	movs	r1, #255	; 0xff
     fd4:	4b1d      	ldr	r3, [pc, #116]	; (104c <Reset_Handler+0xc8>)
     fd6:	438b      	bics	r3, r1
     fd8:	6093      	str	r3, [r2, #8]
        SBMATRIX->SFR[SBMATRIX_SLAVE_HMCRAMC0].reg = 2;
     fda:	39fd      	subs	r1, #253	; 0xfd
     fdc:	2390      	movs	r3, #144	; 0x90
     fde:	005b      	lsls	r3, r3, #1
     fe0:	4a1b      	ldr	r2, [pc, #108]	; (1050 <Reset_Handler+0xcc>)
     fe2:	50d1      	str	r1, [r2, r3]
        USB->DEVICE.QOSCTRL.bit.CQOS = 2;
     fe4:	4a1b      	ldr	r2, [pc, #108]	; (1054 <Reset_Handler+0xd0>)
     fe6:	78d3      	ldrb	r3, [r2, #3]
     fe8:	2503      	movs	r5, #3
     fea:	43ab      	bics	r3, r5
     fec:	2402      	movs	r4, #2
     fee:	4323      	orrs	r3, r4
     ff0:	70d3      	strb	r3, [r2, #3]
        USB->DEVICE.QOSCTRL.bit.DQOS = 2;
     ff2:	78d3      	ldrb	r3, [r2, #3]
     ff4:	270c      	movs	r7, #12
     ff6:	43bb      	bics	r3, r7
     ff8:	2608      	movs	r6, #8
     ffa:	4333      	orrs	r3, r6
     ffc:	70d3      	strb	r3, [r2, #3]
        DMAC->QOSCTRL.bit.DQOS = 2;
     ffe:	4b16      	ldr	r3, [pc, #88]	; (1058 <Reset_Handler+0xd4>)
    1000:	7b98      	ldrb	r0, [r3, #14]
    1002:	2230      	movs	r2, #48	; 0x30
    1004:	4390      	bics	r0, r2
    1006:	2220      	movs	r2, #32
    1008:	4310      	orrs	r0, r2
    100a:	7398      	strb	r0, [r3, #14]
        DMAC->QOSCTRL.bit.FQOS = 2;
    100c:	7b99      	ldrb	r1, [r3, #14]
    100e:	43b9      	bics	r1, r7
    1010:	4331      	orrs	r1, r6
    1012:	7399      	strb	r1, [r3, #14]
        DMAC->QOSCTRL.bit.WRBQOS = 2;
    1014:	7b9a      	ldrb	r2, [r3, #14]
    1016:	43aa      	bics	r2, r5
    1018:	4322      	orrs	r2, r4
    101a:	739a      	strb	r2, [r3, #14]
        NVMCTRL->CTRLB.bit.MANW = 1;
    101c:	4a0f      	ldr	r2, [pc, #60]	; (105c <Reset_Handler+0xd8>)
    101e:	6853      	ldr	r3, [r2, #4]
    1020:	2180      	movs	r1, #128	; 0x80
    1022:	430b      	orrs	r3, r1
    1024:	6053      	str	r3, [r2, #4]
        __libc_init_array();
    1026:	4b0e      	ldr	r3, [pc, #56]	; (1060 <Reset_Handler+0xdc>)
    1028:	4798      	blx	r3
        main();
    102a:	4b0e      	ldr	r3, [pc, #56]	; (1064 <Reset_Handler+0xe0>)
    102c:	4798      	blx	r3
    102e:	e7fe      	b.n	102e <Reset_Handler+0xaa>
    1030:	00001330 	.word	0x00001330
    1034:	20000000 	.word	0x20000000
    1038:	20000004 	.word	0x20000004
    103c:	20000004 	.word	0x20000004
    1040:	20000004 	.word	0x20000004
    1044:	2000012c 	.word	0x2000012c
    1048:	e000ed00 	.word	0xe000ed00
    104c:	00000000 	.word	0x00000000
    1050:	41007000 	.word	0x41007000
    1054:	41005000 	.word	0x41005000
    1058:	41004800 	.word	0x41004800
    105c:	41004000 	.word	0x41004000
    1060:	0000115d 	.word	0x0000115d
    1064:	000010b1 	.word	0x000010b1

00001068 <configure_eeprom>:

void configure_eeprom(void);

//! [setup]
void configure_eeprom(void)
{
    1068:	b510      	push	{r4, lr}
	/* Setup EEPROM emulator service */
//! [init_eeprom_service]
	enum status_code error_code = eeprom_emulator_init();
    106a:	4b06      	ldr	r3, [pc, #24]	; (1084 <configure_eeprom+0x1c>)
    106c:	4798      	blx	r3
//! [init_eeprom_service]

//! [check_init_ok]
	if (error_code == STATUS_ERR_NO_MEMORY) {
    106e:	2816      	cmp	r0, #22
    1070:	d002      	beq.n	1078 <configure_eeprom+0x10>
			/* No EEPROM section has been set in the device's fuses */
		}
	}
//! [check_init_ok]
//! [check_re-init]
	else if (error_code != STATUS_OK) {
    1072:	2800      	cmp	r0, #0
    1074:	d101      	bne.n	107a <configure_eeprom+0x12>
		 * irrecoverably corrupt) */
		eeprom_emulator_erase_memory();
		eeprom_emulator_init();
	}
//! [check_re-init]
}
    1076:	bd10      	pop	{r4, pc}
    1078:	e7fe      	b.n	1078 <configure_eeprom+0x10>
		eeprom_emulator_erase_memory();
    107a:	4b03      	ldr	r3, [pc, #12]	; (1088 <configure_eeprom+0x20>)
    107c:	4798      	blx	r3
		eeprom_emulator_init();
    107e:	4b01      	ldr	r3, [pc, #4]	; (1084 <configure_eeprom+0x1c>)
    1080:	4798      	blx	r3
}
    1082:	e7f8      	b.n	1076 <configure_eeprom+0xe>
    1084:	00000b91 	.word	0x00000b91
    1088:	00000c75 	.word	0x00000c75

0000108c <SYSCTRL_Handler>:

#if (SAMD || SAMR21)
void SYSCTRL_Handler(void)
{
    108c:	b510      	push	{r4, lr}
	if (SYSCTRL->INTFLAG.reg & SYSCTRL_INTFLAG_BOD33DET) {
    108e:	4b06      	ldr	r3, [pc, #24]	; (10a8 <SYSCTRL_Handler+0x1c>)
    1090:	689b      	ldr	r3, [r3, #8]
    1092:	055b      	lsls	r3, r3, #21
    1094:	d400      	bmi.n	1098 <SYSCTRL_Handler+0xc>
		SYSCTRL->INTFLAG.reg = SYSCTRL_INTFLAG_BOD33DET;
		eeprom_emulator_commit_page_buffer();
	}
}
    1096:	bd10      	pop	{r4, pc}
		SYSCTRL->INTFLAG.reg = SYSCTRL_INTFLAG_BOD33DET;
    1098:	2280      	movs	r2, #128	; 0x80
    109a:	00d2      	lsls	r2, r2, #3
    109c:	4b02      	ldr	r3, [pc, #8]	; (10a8 <SYSCTRL_Handler+0x1c>)
    109e:	609a      	str	r2, [r3, #8]
		eeprom_emulator_commit_page_buffer();
    10a0:	4b02      	ldr	r3, [pc, #8]	; (10ac <SYSCTRL_Handler+0x20>)
    10a2:	4798      	blx	r3
}
    10a4:	e7f7      	b.n	1096 <SYSCTRL_Handler+0xa>
    10a6:	46c0      	nop			; (mov r8, r8)
    10a8:	40000800 	.word	0x40000800
    10ac:	00000dbd 	.word	0x00000dbd

000010b0 <main>:

}
//! [setup]

int main(void)
{
    10b0:	b530      	push	{r4, r5, lr}
    10b2:	b093      	sub	sp, #76	; 0x4c
	system_init();
    10b4:	4b20      	ldr	r3, [pc, #128]	; (1138 <main+0x88>)
    10b6:	4798      	blx	r3

//! [setup_init]
	configure_eeprom();
    10b8:	4b20      	ldr	r3, [pc, #128]	; (113c <main+0x8c>)
    10ba:	4798      	blx	r3
		struct bod_config *const conf)
{
	/* Sanity check arguments */
	Assert(conf);

	conf->prescaler      = BOD_PRESCALE_DIV_2;
    10bc:	a901      	add	r1, sp, #4
    10be:	2300      	movs	r3, #0
    10c0:	800b      	strh	r3, [r1, #0]
	conf->mode           = BOD_MODE_CONTINUOUS;
    10c2:	804b      	strh	r3, [r1, #2]
	conf->action         = BOD_ACTION_RESET;
	conf->level          = 0x27;
	conf->hysteresis     = true;
    10c4:	3301      	adds	r3, #1
    10c6:	718b      	strb	r3, [r1, #6]
	conf->run_in_standby = true;
    10c8:	71cb      	strb	r3, [r1, #7]
	config_bod33.action = BOD_ACTION_INTERRUPT;
    10ca:	330f      	adds	r3, #15
    10cc:	710b      	strb	r3, [r1, #4]
	config_bod33.level = 48;
    10ce:	3320      	adds	r3, #32
    10d0:	714b      	strb	r3, [r1, #5]
	bod_set_config(BOD_BOD33, &config_bod33);
    10d2:	2000      	movs	r0, #0
    10d4:	4b1a      	ldr	r3, [pc, #104]	; (1140 <main+0x90>)
    10d6:	4798      	blx	r3
static inline enum status_code bod_enable(
		const enum bod bod_id)
{
	switch (bod_id) {
		case BOD_BOD33:
			SYSCTRL->BOD33.reg |= SYSCTRL_BOD33_ENABLE;
    10d8:	4b1a      	ldr	r3, [pc, #104]	; (1144 <main+0x94>)
    10da:	6b5a      	ldr	r2, [r3, #52]	; 0x34
    10dc:	2102      	movs	r1, #2
    10de:	430a      	orrs	r2, r1
    10e0:	635a      	str	r2, [r3, #52]	; 0x34
	SYSCTRL->INTENSET.reg = SYSCTRL_INTENCLR_BOD33DET;
    10e2:	2280      	movs	r2, #128	; 0x80
    10e4:	00d2      	lsls	r2, r2, #3
    10e6:	605a      	str	r2, [r3, #4]
 * \param[in] vector Interrupt vector to enable
 */
static inline void system_interrupt_enable(
		const enum system_interrupt_vector vector)
{
	NVIC->ISER[0] = (uint32_t)(1 << ((uint32_t)vector & 0x0000001f));
    10e8:	4b17      	ldr	r3, [pc, #92]	; (1148 <main+0x98>)
    10ea:	6019      	str	r1, [r3, #0]
//! [setup_bod]

//! [main]
//! [read_page]
	uint8_t page_data[EEPROM_PAGE_SIZE];
	eeprom_emulator_read_page(0, page_data);
    10ec:	ac03      	add	r4, sp, #12
    10ee:	0021      	movs	r1, r4
    10f0:	2000      	movs	r0, #0
    10f2:	4b16      	ldr	r3, [pc, #88]	; (114c <main+0x9c>)
    10f4:	4798      	blx	r3
//! [read_page]

//! [toggle_first_byte]
	page_data[0] = !page_data[0];
    10f6:	7823      	ldrb	r3, [r4, #0]
    10f8:	425a      	negs	r2, r3
    10fa:	415a      	adcs	r2, r3
    10fc:	7022      	strb	r2, [r4, #0]
	if (level) {
    10fe:	2b00      	cmp	r3, #0
    1100:	d114      	bne.n	112c <main+0x7c>
		port_base->OUTSET.reg = pin_mask;
    1102:	2280      	movs	r2, #128	; 0x80
    1104:	05d2      	lsls	r2, r2, #23
    1106:	4b12      	ldr	r3, [pc, #72]	; (1150 <main+0xa0>)
    1108:	619a      	str	r2, [r3, #24]
//! [set_led]
	port_pin_set_output_level(LED_0_PIN, page_data[0]);
//! [set_led]

//! [write_page]
	eeprom_emulator_write_page(0, page_data);
    110a:	ac03      	add	r4, sp, #12
    110c:	0021      	movs	r1, r4
    110e:	2000      	movs	r0, #0
    1110:	4d10      	ldr	r5, [pc, #64]	; (1154 <main+0xa4>)
    1112:	47a8      	blx	r5
	eeprom_emulator_commit_page_buffer();
    1114:	4b10      	ldr	r3, [pc, #64]	; (1158 <main+0xa8>)
    1116:	4798      	blx	r3
//! [write_page]

//! [write_page_not_commit]
	page_data[1]=0x1;
    1118:	2301      	movs	r3, #1
    111a:	7063      	strb	r3, [r4, #1]
	eeprom_emulator_write_page(0, page_data);
    111c:	0021      	movs	r1, r4
    111e:	2000      	movs	r0, #0
    1120:	47a8      	blx	r5
//! [write_page_not_commit]

	while (true) {
		eeprom_emulator_read_page(0, page_data);
    1122:	4c0a      	ldr	r4, [pc, #40]	; (114c <main+0x9c>)
    1124:	a903      	add	r1, sp, #12
    1126:	2000      	movs	r0, #0
    1128:	47a0      	blx	r4
    112a:	e7fb      	b.n	1124 <main+0x74>
	} else {
		port_base->OUTCLR.reg = pin_mask;
    112c:	2280      	movs	r2, #128	; 0x80
    112e:	05d2      	lsls	r2, r2, #23
    1130:	4b07      	ldr	r3, [pc, #28]	; (1150 <main+0xa0>)
    1132:	615a      	str	r2, [r3, #20]
    1134:	e7e9      	b.n	110a <main+0x5a>
    1136:	46c0      	nop			; (mov r8, r8)
    1138:	00000995 	.word	0x00000995
    113c:	00001069 	.word	0x00001069
    1140:	0000021d 	.word	0x0000021d
    1144:	40000800 	.word	0x40000800
    1148:	e000e100 	.word	0xe000e100
    114c:	00000d55 	.word	0x00000d55
    1150:	41004480 	.word	0x41004480
    1154:	00000ded 	.word	0x00000ded
    1158:	00000dbd 	.word	0x00000dbd

0000115c <__libc_init_array>:
    115c:	b570      	push	{r4, r5, r6, lr}
    115e:	2600      	movs	r6, #0
    1160:	4d0c      	ldr	r5, [pc, #48]	; (1194 <__libc_init_array+0x38>)
    1162:	4c0d      	ldr	r4, [pc, #52]	; (1198 <__libc_init_array+0x3c>)
    1164:	1b64      	subs	r4, r4, r5
    1166:	10a4      	asrs	r4, r4, #2
    1168:	42a6      	cmp	r6, r4
    116a:	d109      	bne.n	1180 <__libc_init_array+0x24>
    116c:	2600      	movs	r6, #0
    116e:	f000 f8cf 	bl	1310 <_init>
    1172:	4d0a      	ldr	r5, [pc, #40]	; (119c <__libc_init_array+0x40>)
    1174:	4c0a      	ldr	r4, [pc, #40]	; (11a0 <__libc_init_array+0x44>)
    1176:	1b64      	subs	r4, r4, r5
    1178:	10a4      	asrs	r4, r4, #2
    117a:	42a6      	cmp	r6, r4
    117c:	d105      	bne.n	118a <__libc_init_array+0x2e>
    117e:	bd70      	pop	{r4, r5, r6, pc}
    1180:	00b3      	lsls	r3, r6, #2
    1182:	58eb      	ldr	r3, [r5, r3]
    1184:	4798      	blx	r3
    1186:	3601      	adds	r6, #1
    1188:	e7ee      	b.n	1168 <__libc_init_array+0xc>
    118a:	00b3      	lsls	r3, r6, #2
    118c:	58eb      	ldr	r3, [r5, r3]
    118e:	4798      	blx	r3
    1190:	3601      	adds	r6, #1
    1192:	e7f2      	b.n	117a <__libc_init_array+0x1e>
    1194:	0000131c 	.word	0x0000131c
    1198:	0000131c 	.word	0x0000131c
    119c:	0000131c 	.word	0x0000131c
    11a0:	00001320 	.word	0x00001320

000011a4 <memcpy>:
    11a4:	2300      	movs	r3, #0
    11a6:	b510      	push	{r4, lr}
    11a8:	429a      	cmp	r2, r3
    11aa:	d100      	bne.n	11ae <memcpy+0xa>
    11ac:	bd10      	pop	{r4, pc}
    11ae:	5ccc      	ldrb	r4, [r1, r3]
    11b0:	54c4      	strb	r4, [r0, r3]
    11b2:	3301      	adds	r3, #1
    11b4:	e7f8      	b.n	11a8 <memcpy+0x4>

000011b6 <memset>:
    11b6:	0003      	movs	r3, r0
    11b8:	1882      	adds	r2, r0, r2
    11ba:	4293      	cmp	r3, r2
    11bc:	d100      	bne.n	11c0 <memset+0xa>
    11be:	4770      	bx	lr
    11c0:	7019      	strb	r1, [r3, #0]
    11c2:	3301      	adds	r3, #1
    11c4:	e7f9      	b.n	11ba <memset+0x4>
    11c6:	0000      	movs	r0, r0
    11c8:	000003a0 	.word	0x000003a0
    11cc:	000003a0 	.word	0x000003a0
    11d0:	0000037c 	.word	0x0000037c
    11d4:	000003a0 	.word	0x000003a0
    11d8:	0000037c 	.word	0x0000037c
    11dc:	00000362 	.word	0x00000362
    11e0:	00000362 	.word	0x00000362
    11e4:	000003a0 	.word	0x000003a0
    11e8:	000003a0 	.word	0x000003a0
    11ec:	000003a0 	.word	0x000003a0
    11f0:	000003a0 	.word	0x000003a0
    11f4:	000003a0 	.word	0x000003a0
    11f8:	000003a0 	.word	0x000003a0
    11fc:	000003a0 	.word	0x000003a0
    1200:	000003a0 	.word	0x000003a0
    1204:	000003a0 	.word	0x000003a0
    1208:	000003a0 	.word	0x000003a0
    120c:	000003a0 	.word	0x000003a0
    1210:	000003a0 	.word	0x000003a0
    1214:	000003a0 	.word	0x000003a0
    1218:	000003a0 	.word	0x000003a0
    121c:	000003a0 	.word	0x000003a0
    1220:	000003a0 	.word	0x000003a0
    1224:	000003a0 	.word	0x000003a0
    1228:	000003a0 	.word	0x000003a0
    122c:	000003a0 	.word	0x000003a0
    1230:	000003a0 	.word	0x000003a0
    1234:	000003a0 	.word	0x000003a0
    1238:	000003a0 	.word	0x000003a0
    123c:	000003a0 	.word	0x000003a0
    1240:	000003a0 	.word	0x000003a0
    1244:	000003a0 	.word	0x000003a0
    1248:	000003a0 	.word	0x000003a0
    124c:	000003a0 	.word	0x000003a0
    1250:	000003a0 	.word	0x000003a0
    1254:	000003a0 	.word	0x000003a0
    1258:	000003a0 	.word	0x000003a0
    125c:	000003a0 	.word	0x000003a0
    1260:	000003a0 	.word	0x000003a0
    1264:	000003a0 	.word	0x000003a0
    1268:	000003a0 	.word	0x000003a0
    126c:	000003a0 	.word	0x000003a0
    1270:	000003a0 	.word	0x000003a0
    1274:	000003a0 	.word	0x000003a0
    1278:	000003a0 	.word	0x000003a0
    127c:	000003a0 	.word	0x000003a0
    1280:	000003a0 	.word	0x000003a0
    1284:	000003a0 	.word	0x000003a0
    1288:	000003a0 	.word	0x000003a0
    128c:	000003a0 	.word	0x000003a0
    1290:	000003a0 	.word	0x000003a0
    1294:	000003a0 	.word	0x000003a0
    1298:	000003a0 	.word	0x000003a0
    129c:	000003a0 	.word	0x000003a0
    12a0:	000003a0 	.word	0x000003a0
    12a4:	000003a0 	.word	0x000003a0
    12a8:	000003a0 	.word	0x000003a0
    12ac:	000003a0 	.word	0x000003a0
    12b0:	000003a0 	.word	0x000003a0
    12b4:	000003a0 	.word	0x000003a0
    12b8:	000003a0 	.word	0x000003a0
    12bc:	000003a0 	.word	0x000003a0
    12c0:	000003a0 	.word	0x000003a0
    12c4:	000003a0 	.word	0x000003a0
    12c8:	0000037c 	.word	0x0000037c
    12cc:	0000037c 	.word	0x0000037c
    12d0:	00000384 	.word	0x00000384
    12d4:	00000384 	.word	0x00000384
    12d8:	00000384 	.word	0x00000384
    12dc:	00000384 	.word	0x00000384
    12e0:	0000060c 	.word	0x0000060c
    12e4:	000005ec 	.word	0x000005ec
    12e8:	000005ec 	.word	0x000005ec
    12ec:	00000678 	.word	0x00000678
    12f0:	000005fe 	.word	0x000005fe
    12f4:	0000061a 	.word	0x0000061a
    12f8:	000005f0 	.word	0x000005f0
    12fc:	00000628 	.word	0x00000628
    1300:	00000668 	.word	0x00000668
    1304:	41744545 	.word	0x41744545
    1308:	50524f4d 	.word	0x50524f4d
    130c:	456d752e 	.word	0x456d752e

00001310 <_init>:
    1310:	b5f8      	push	{r3, r4, r5, r6, r7, lr}
    1312:	46c0      	nop			; (mov r8, r8)
    1314:	bcf8      	pop	{r3, r4, r5, r6, r7}
    1316:	bc08      	pop	{r3}
    1318:	469e      	mov	lr, r3
    131a:	4770      	bx	lr

0000131c <__init_array_start>:
    131c:	000000dd 	.word	0x000000dd

00001320 <_fini>:
    1320:	b5f8      	push	{r3, r4, r5, r6, r7, lr}
    1322:	46c0      	nop			; (mov r8, r8)
    1324:	bcf8      	pop	{r3, r4, r5, r6, r7}
    1326:	bc08      	pop	{r3}
    1328:	469e      	mov	lr, r3
    132a:	4770      	bx	lr

0000132c <__fini_array_start>:
    132c:	000000b5 	.word	0x000000b5
